

Microchip MPLAB XC8 Assembler V3.10 build 20250813170317 
                                                                                               Tue Nov 25 21:42:17 2025

Microchip MPLAB XC8 C Compiler v3.10 (Free license) build 20250813170317 Og1 
     1                           	processor	16F877A
     2                           	pagewidth 120
     3                           	opt	flic
     4                           	psect	strings,global,class=STRING,space=0,delta=2,noexec
     5                           	psect	cinit,global,class=CODE,space=0,merge=1,delta=2
     6                           	psect	bssBANK1,global,class=BANK1,space=1,delta=1,noexec
     7                           	psect	clrtext,global,class=CODE,space=0,delta=2
     8                           	psect	cstackCOMMON,global,class=COMMON,space=1,delta=1,noexec
     9                           	psect	cstackBANK0,global,class=BANK0,space=1,delta=1,noexec
    10                           	psect	maintext,global,class=CODE,space=0,split=1,delta=2
    11                           	psect	text1,local,class=CODE,space=0,merge=1,delta=2,group=3
    12                           	psect	text2,local,class=CODE,space=0,merge=1,delta=2,group=1
    13                           	psect	text3,local,class=CODE,space=0,merge=1,delta=2,group=1
    14                           	psect	text4,local,class=CODE,space=0,merge=1,delta=2,group=1
    15                           	psect	text5,local,class=CODE,space=0,merge=1,delta=2,group=1
    16                           	psect	text6,local,class=CODE,space=0,merge=1,delta=2,group=3
    17                           	psect	text7,local,class=CODE,space=0,merge=1,delta=2,group=3
    18                           	psect	text8,local,class=CODE,space=0,merge=1,delta=2,group=3
    19                           	psect	text9,local,class=CODE,space=0,merge=1,delta=2,group=2
    20                           	psect	text10,local,class=CODE,space=0,merge=1,delta=2,group=2
    21                           	psect	text11,local,class=CODE,space=0,merge=1,delta=2,group=1
    22                           	psect	text12,local,class=CODE,space=0,merge=1,delta=2,group=2
    23                           	psect	text13,local,class=CODE,space=0,merge=1,delta=2
    24                           	psect	text14,local,class=CODE,space=0,merge=1,delta=2
    25                           	psect	text15,local,class=CODE,space=0,merge=1,delta=2
    26                           	psect	text16,local,class=CODE,space=0,merge=1,delta=2
    27                           	psect	text17,local,class=CODE,space=0,merge=1,delta=2
    28                           	psect	text18,local,class=CODE,space=0,merge=1,delta=2
    29                           	psect	text19,local,class=CODE,space=0,merge=1,delta=2
    30                           	psect	text20,local,class=CODE,space=0,merge=1,delta=2
    31                           	psect	text21,local,class=CODE,space=0,merge=1,delta=2,group=2
    32                           	psect	text22,local,class=CODE,space=0,merge=1,delta=2,group=2
    33                           	psect	config,global,abs,ovrld,class=CONFIG,space=4,delta=2,noexec
    34                           	dabs	1,0x7E,2
    35     0000                     
    36                           ; Generated 12/10/2023 GMT
    37                           ; 
    38                           ; Copyright © 2023, Microchip Technology Inc. and its subsidiaries ("Microchip")
    39                           ; All rights reserved.
    40                           ; 
    41                           ; This software is developed by Microchip Technology Inc. and its subsidiaries ("Microch
      +                          ip").
    42                           ; 
    43                           ; Redistribution and use in source and binary forms, with or without modification, are
    44                           ; permitted provided that the following conditions are met:
    45                           ; 
    46                           ;     1. Redistributions of source code must retain the above copyright notice, this lis
      +                          t of
    47                           ;        conditions and the following disclaimer.
    48                           ; 
    49                           ;     2. Redistributions in binary form must reproduce the above copyright notice, this 
      +                          list
    50                           ;        of conditions and the following disclaimer in the documentation and/or other
    51                           ;        materials provided with the distribution. Publication is not required when
    52                           ;        this file is used in an embedded application.
    53                           ; 
    54                           ;     3. Microchip's name may not be used to endorse or promote products derived from th
      +                          is
    55                           ;        software without specific prior written permission.
    56                           ; 
    57                           ; THIS SOFTWARE IS PROVIDED BY MICROCHIP "AS IS" AND ANY EXPRESS OR IMPLIED WARRANTIES,
    58                           ; INCLUDING, BUT NOT LIMITED TO, THE IMPLIED WARRANTIES OF MERCHANTABILITY AND FITNESS F
      +                          OR
    59                           ; PURPOSE ARE DISCLAIMED.  IN NO EVENT SHALL MICROCHIP BE LIABLE FOR ANY DIRECT, INDIREC
      +                          T,
    60                           ; INCIDENTAL, SPECIAL, EXEMPLARY, OR CONSEQUENTIAL DAMAGES (INCLUDING BUT NOT LIMITED TO
    61                           ; PROCUREMENT OF SUBSTITUTE GOODS OR SERVICES; LOSS OF USE, DATA OR PROFITS; OR BUSINESS
    62                           ; INTERRUPTION) HOWSOEVER CAUSED AND ON ANY THEORY OF LIABILITY, WHETHER IN CONTRACT, ST
      +                          RICT
    63                           ; LIABILITY, OR TORT (INCLUDING NEGLIGENCE OR OTHERWISE) ARISING IN ANY WAY OUT OF THE U
      +                          SE OF
    64                           ; THIS SOFTWARE, EVEN IF ADVISED OF THE POSSIBILITY OF SUCH DAMAGE.
    65                           ; 
    66                           ; 
    67                           ; Code-generator required, PIC16F877A Definitions
    68                           ; 
    69                           ; SFR Addresses
    70     0004                     fsr             equ	4
    71     0004                     fsr0            equ	4
    72     0000                     indf            equ	0
    73     0000                     indf0           equ	0
    74     0002                     pc              equ	2
    75     0002                     pcl             equ	2
    76     000A                     pclath          equ	10
    77     0003                     status          equ	3
    78     0000                     INDF            equ	0	;# 
    79     0001                     TMR0            equ	1	;# 
    80     0002                     PCL             equ	2	;# 
    81     0003                     STATUS          equ	3	;# 
    82     0004                     FSR             equ	4	;# 
    83     0005                     PORTA           equ	5	;# 
    84     0006                     PORTB           equ	6	;# 
    85     0007                     PORTC           equ	7	;# 
    86     0008                     PORTD           equ	8	;# 
    87     0009                     PORTE           equ	9	;# 
    88     000A                     PCLATH          equ	10	;# 
    89     000B                     INTCON          equ	11	;# 
    90     000C                     PIR1            equ	12	;# 
    91     000D                     PIR2            equ	13	;# 
    92     000E                     TMR1            equ	14	;# 
    93     000E                     TMR1L           equ	14	;# 
    94     000F                     TMR1H           equ	15	;# 
    95     0010                     T1CON           equ	16	;# 
    96     0011                     TMR2            equ	17	;# 
    97     0012                     T2CON           equ	18	;# 
    98     0013                     SSPBUF          equ	19	;# 
    99     0014                     SSPCON          equ	20	;# 
   100     0015                     CCPR1           equ	21	;# 
   101     0015                     CCPR1L          equ	21	;# 
   102     0016                     CCPR1H          equ	22	;# 
   103     0017                     CCP1CON         equ	23	;# 
   104     0018                     RCSTA           equ	24	;# 
   105     0019                     TXREG           equ	25	;# 
   106     001A                     RCREG           equ	26	;# 
   107     001B                     CCPR2           equ	27	;# 
   108     001B                     CCPR2L          equ	27	;# 
   109     001C                     CCPR2H          equ	28	;# 
   110     001D                     CCP2CON         equ	29	;# 
   111     001E                     ADRESH          equ	30	;# 
   112     001F                     ADCON0          equ	31	;# 
   113     0081                     OPTION_REG      equ	129	;# 
   114     0085                     TRISA           equ	133	;# 
   115     0086                     TRISB           equ	134	;# 
   116     0087                     TRISC           equ	135	;# 
   117     0088                     TRISD           equ	136	;# 
   118     0089                     TRISE           equ	137	;# 
   119     008C                     PIE1            equ	140	;# 
   120     008D                     PIE2            equ	141	;# 
   121     008E                     PCON            equ	142	;# 
   122     0091                     SSPCON2         equ	145	;# 
   123     0092                     PR2             equ	146	;# 
   124     0093                     SSPADD          equ	147	;# 
   125     0094                     SSPSTAT         equ	148	;# 
   126     0098                     TXSTA           equ	152	;# 
   127     0099                     SPBRG           equ	153	;# 
   128     009C                     CMCON           equ	156	;# 
   129     009D                     CVRCON          equ	157	;# 
   130     009E                     ADRESL          equ	158	;# 
   131     009F                     ADCON1          equ	159	;# 
   132     010C                     EEDATA          equ	268	;# 
   133     010D                     EEADR           equ	269	;# 
   134     010E                     EEDATH          equ	270	;# 
   135     010F                     EEADRH          equ	271	;# 
   136     018C                     EECON1          equ	396	;# 
   137     018D                     EECON2          equ	397	;# 
   138     0000                     INDF            equ	0	;# 
   139     0001                     TMR0            equ	1	;# 
   140     0002                     PCL             equ	2	;# 
   141     0003                     STATUS          equ	3	;# 
   142     0004                     FSR             equ	4	;# 
   143     0005                     PORTA           equ	5	;# 
   144     0006                     PORTB           equ	6	;# 
   145     0007                     PORTC           equ	7	;# 
   146     0008                     PORTD           equ	8	;# 
   147     0009                     PORTE           equ	9	;# 
   148     000A                     PCLATH          equ	10	;# 
   149     000B                     INTCON          equ	11	;# 
   150     000C                     PIR1            equ	12	;# 
   151     000D                     PIR2            equ	13	;# 
   152     000E                     TMR1            equ	14	;# 
   153     000E                     TMR1L           equ	14	;# 
   154     000F                     TMR1H           equ	15	;# 
   155     0010                     T1CON           equ	16	;# 
   156     0011                     TMR2            equ	17	;# 
   157     0012                     T2CON           equ	18	;# 
   158     0013                     SSPBUF          equ	19	;# 
   159     0014                     SSPCON          equ	20	;# 
   160     0015                     CCPR1           equ	21	;# 
   161     0015                     CCPR1L          equ	21	;# 
   162     0016                     CCPR1H          equ	22	;# 
   163     0017                     CCP1CON         equ	23	;# 
   164     0018                     RCSTA           equ	24	;# 
   165     0019                     TXREG           equ	25	;# 
   166     001A                     RCREG           equ	26	;# 
   167     001B                     CCPR2           equ	27	;# 
   168     001B                     CCPR2L          equ	27	;# 
   169     001C                     CCPR2H          equ	28	;# 
   170     001D                     CCP2CON         equ	29	;# 
   171     001E                     ADRESH          equ	30	;# 
   172     001F                     ADCON0          equ	31	;# 
   173     0081                     OPTION_REG      equ	129	;# 
   174     0085                     TRISA           equ	133	;# 
   175     0086                     TRISB           equ	134	;# 
   176     0087                     TRISC           equ	135	;# 
   177     0088                     TRISD           equ	136	;# 
   178     0089                     TRISE           equ	137	;# 
   179     008C                     PIE1            equ	140	;# 
   180     008D                     PIE2            equ	141	;# 
   181     008E                     PCON            equ	142	;# 
   182     0091                     SSPCON2         equ	145	;# 
   183     0092                     PR2             equ	146	;# 
   184     0093                     SSPADD          equ	147	;# 
   185     0094                     SSPSTAT         equ	148	;# 
   186     0098                     TXSTA           equ	152	;# 
   187     0099                     SPBRG           equ	153	;# 
   188     009C                     CMCON           equ	156	;# 
   189     009D                     CVRCON          equ	157	;# 
   190     009E                     ADRESL          equ	158	;# 
   191     009F                     ADCON1          equ	159	;# 
   192     010C                     EEDATA          equ	268	;# 
   193     010D                     EEADR           equ	269	;# 
   194     010E                     EEDATH          equ	270	;# 
   195     010F                     EEADRH          equ	271	;# 
   196     018C                     EECON1          equ	396	;# 
   197     018D                     EECON2          equ	397	;# 
   198     0008                     _PORTD          set	8
   199     001E                     _ADRESH         set	30
   200     001F                     _ADCON0         set	31
   201     0037                     _RB7            set	55
   202     0036                     _RB6            set	54
   203     00FA                     _GO_nDONE       set	250
   204     0088                     _TRISD          set	136
   205     009E                     _ADRESL         set	158
   206     009F                     _ADCON1         set	159
   207     0085                     _TRISA          set	133
   208     0437                     _TRISB7         set	1079
   209     0436                     _TRISB6         set	1078
   210                           
   211                           	psect	strings
   212     0003                     __pstrings:
   213     0003                     stringtab:
   214     0003                     __stringtab:
   215     0003                     stringcode:	
   216                           ;	String table - string pointers are 1 byte each
   217                           
   218     0003                     stringdir:
   219     0003  3000               	movlw	high stringdir
   220     0004  008A               	movwf	10
   221     0005  0804               	movf	4,w
   222     0006  0A84               	incf	4,f
   223     0007  0782               	addwf	2,f
   224     0008                     __stringbase:
   225     0008  3400               	retlw	0
   226     0009                     __end_of__stringtab:
   227     0009                     STR_2:
   228     0009  346D               	retlw	109	;'m'
   229     000A  3456               	retlw	86	;'V'
   230     000B  343A               	retlw	58	;':'
   231     000C  3420               	retlw	32	;' '
   232     000D  3420               	retlw	32	;' '
   233     000E  3425               	retlw	37	;'%'
   234     000F  3434               	retlw	52	;'4'
   235     0010  3475               	retlw	117	;'u'
   236     0011  3400               	retlw	0
   237     0012                     STR_1:
   238     0012  3452               	retlw	82	;'R'
   239     0013  3441               	retlw	65	;'A'
   240     0014  3457               	retlw	87	;'W'
   241     0015  343A               	retlw	58	;':'
   242     0016  3420               	retlw	32	;' '
   243     0017  3425               	retlw	37	;'%'
   244     0018  3434               	retlw	52	;'4'
   245     0019  3475               	retlw	117	;'u'
   246     001A  3400               	retlw	0
   247                           
   248                           	psect	cinit
   249     07F3                     start_initialization:	
   250                           ; #config settings
   251                           
   252     07F3                     __initialization:
   253                           
   254                           ; Clear objects allocated to BANK1
   255     07F3  1383               	bcf	3,7	;select IRP bank0
   256     07F4  30A0               	movlw	low __pbssBANK1
   257     07F5  0084               	movwf	4
   258     07F6  30C5               	movlw	low (__pbssBANK1+37)
   259     07F7  120A  118A  22A4  120A  118A  	fcall	clear_ram0
   260     07FC                     end_of_initialization:	
   261                           ;End of C runtime variable initialization code
   262                           
   263     07FC                     __end_of__initialization:
   264     07FC  0183               	clrf	3
   265     07FD  120A  118A  2E26   	ljmp	_main	;jump to C main() function
   266                           
   267                           	psect	bssBANK1
   268     00A0                     __pbssBANK1:
   269     00A0                     _width:
   270     00A0                     	ds	2
   271     00A2                     _prec:
   272     00A2                     	ds	2
   273     00A4                     _flags:
   274     00A4                     	ds	1
   275     00A5                     _dbuf:
   276     00A5                     	ds	32
   277                           
   278                           	psect	clrtext
   279     02A4                     clear_ram0:	
   280                           ;	Called with FSR containing the base address, and
   281                           ;	W with the last address+1
   282                           
   283     02A4  0064               	clrwdt	;clear the watchdog before getting into this loop
   284     02A5                     clrloop0:
   285     02A5  0180               	clrf	0	;clear RAM location pointed to by FSR
   286     02A6  0A84               	incf	4,f	;increment pointer
   287     02A7  0604               	xorwf	4,w	;XOR with final address
   288     02A8  1903               	btfsc	3,2	;have we reached the end yet?
   289     02A9  3400               	retlw	0	;all done for this memory range, return
   290     02AA  0604               	xorwf	4,w	;XOR again to restore value
   291     02AB  2AA5               	goto	clrloop0	;do the next byte
   292                           
   293                           	psect	cstackCOMMON
   294     0070                     __pcstackCOMMON:
   295     0070                     ?_putch:
   296     0070                     ?_adc_init:	
   297                           ; 1 bytes @ 0x0
   298                           
   299     0070                     ?_lcd_cmd:	
   300                           ; 1 bytes @ 0x0
   301                           
   302     0070                     ?_lcd_write:	
   303                           ; 1 bytes @ 0x0
   304                           
   305     0070                     ?_lcd_init:	
   306                           ; 1 bytes @ 0x0
   307                           
   308     0070                     ?_lcd_clear:	
   309                           ; 1 bytes @ 0x0
   310                           
   311     0070                     ?_main:	
   312                           ; 1 bytes @ 0x0
   313                           
   314     0070                     ?_fputc:	
   315                           ; 1 bytes @ 0x0
   316                           
   317     0070                     ?_adc_read_an0:	
   318                           ; 2 bytes @ 0x0
   319                           
   320     0070                     ?___wmul:	
   321                           ; 2 bytes @ 0x0
   322                           
   323     0070                     ?___lwdiv:	
   324                           ; 2 bytes @ 0x0
   325                           
   326     0070                     ?___lwmod:	
   327                           ; 2 bytes @ 0x0
   328                           
   329     0070                     ?___lmul:	
   330                           ; 2 bytes @ 0x0
   331                           
   332     0070                     putch@c:	
   333                           ; 4 bytes @ 0x0
   334                           
   335     0070                     ___wmul@multiplier:	
   336                           ; 1 bytes @ 0x0
   337                           
   338     0070                     ___lwdiv@divisor:	
   339                           ; 2 bytes @ 0x0
   340                           
   341     0070                     ___lwmod@divisor:	
   342                           ; 2 bytes @ 0x0
   343                           
   344     0070                     fputc@c:	
   345                           ; 2 bytes @ 0x0
   346                           
   347     0070                     ___lmul@multiplier:	
   348                           ; 2 bytes @ 0x0
   349                           
   350     0070                     ??_putch:	
   351                           ; 4 bytes @ 0x0
   352                           
   353     0070                     ??_adc_init:	
   354                           ; 1 bytes @ 0x0
   355                           
   356     0070                     ??_lcd_cmd:	
   357                           ; 1 bytes @ 0x0
   358                           
   359     0070                     ??_lcd_write:	
   360                           ; 1 bytes @ 0x0
   361                           
   362                           
   363                           ; 1 bytes @ 0x0
   364     0070                     	ds	2
   365     0072                     lcd_cmd@cmd:
   366     0072                     lcd_write@data:	
   367                           ; 1 bytes @ 0x2
   368                           
   369     0072                     ___wmul@multiplicand:	
   370                           ; 1 bytes @ 0x2
   371                           
   372     0072                     ___lwdiv@dividend:	
   373                           ; 2 bytes @ 0x2
   374                           
   375     0072                     ___lwmod@dividend:	
   376                           ; 2 bytes @ 0x2
   377                           
   378     0072                     fputc@fp:	
   379                           ; 2 bytes @ 0x2
   380                           
   381     0072                     ??_adc_read_an0:	
   382                           ; 2 bytes @ 0x2
   383                           
   384                           
   385                           ; 1 bytes @ 0x2
   386     0072                     	ds	1
   387     0073                     ?_lcd_set_cursor:
   388     0073                     ?_lcd_string:	
   389                           ; 1 bytes @ 0x3
   390                           
   391     0073                     lcd_set_cursor@col:	
   392                           ; 1 bytes @ 0x3
   393                           
   394     0073                     lcd_string@str:	
   395                           ; 1 bytes @ 0x3
   396                           
   397     0073                     ??_lcd_init:	
   398                           ; 1 bytes @ 0x3
   399                           
   400     0073                     ??_lcd_clear:	
   401                           ; 1 bytes @ 0x3
   402                           
   403                           
   404                           ; 1 bytes @ 0x3
   405     0073                     	ds	1
   406     0074                     lcd_set_cursor@row:
   407     0074                     ___lwmod@counter:	
   408                           ; 1 bytes @ 0x4
   409                           
   410     0074                     ___wmul@product:	
   411                           ; 1 bytes @ 0x4
   412                           
   413     0074                     ___lwdiv@quotient:	
   414                           ; 2 bytes @ 0x4
   415                           
   416     0074                     ___lmul@multiplicand:	
   417                           ; 2 bytes @ 0x4
   418                           
   419     0074                     ??_fputc:	
   420                           ; 4 bytes @ 0x4
   421                           
   422     0074                     ??_lcd_set_cursor:	
   423                           ; 1 bytes @ 0x4
   424                           
   425     0074                     ??_lcd_string:	
   426                           ; 1 bytes @ 0x4
   427                           
   428     0074                     ??___wmul:	
   429                           ; 1 bytes @ 0x4
   430                           
   431     0074                     ??___lwdiv:	
   432                           ; 1 bytes @ 0x4
   433                           
   434     0074                     ??___lwmod:	
   435                           ; 1 bytes @ 0x4
   436                           
   437                           
   438                           ; 1 bytes @ 0x4
   439     0074                     	ds	2
   440     0076                     ?_read_prec_or_width:
   441     0076                     ___lwdiv@counter:	
   442                           ; 2 bytes @ 0x6
   443                           
   444     0076                     read_prec_or_width@fmt:	
   445                           ; 1 bytes @ 0x6
   446                           
   447                           
   448                           ; 1 bytes @ 0x6
   449     0076                     	ds	1
   450     0077                     read_prec_or_width@ap:
   451                           
   452                           ; 1 bytes @ 0x7
   453     0077                     	ds	1
   454     0078                     ??___lmul:
   455     0078                     ??_read_prec_or_width:	
   456                           ; 1 bytes @ 0x8
   457                           
   458                           
   459                           ; 1 bytes @ 0x8
   460     0078                     	ds	1
   461     0079                     read_prec_or_width@c:
   462     0079                     ___lmul@product:	
   463                           ; 1 bytes @ 0x9
   464                           
   465                           
   466                           ; 4 bytes @ 0x9
   467     0079                     	ds	1
   468     007A                     read_prec_or_width@n:
   469                           
   470                           ; 2 bytes @ 0xA
   471     007A                     	ds	3
   472     007D                     ??___lldiv:
   473     007D                     ??_pad:	
   474                           ; 1 bytes @ 0xD
   475                           
   476                           
   477                           ; 1 bytes @ 0xD
   478     007D                     	ds	1
   479     007E                     ??_vfprintf:
   480     007E                     ??_utoa:	
   481                           ; 1 bytes @ 0xE
   482                           
   483                           
   484                           	psect	cstackBANK0
   485     0020                     __pcstackBANK0:	
   486                           ; 1 bytes @ 0xE
   487                           
   488     0020                     ?_fputs:
   489     0020                     ?___lldiv:	
   490                           ; 2 bytes @ 0x0
   491                           
   492     0020                     fputs@s:	
   493                           ; 4 bytes @ 0x0
   494                           
   495     0020                     ___lldiv@divisor:	
   496                           ; 1 bytes @ 0x0
   497                           
   498                           
   499                           ; 4 bytes @ 0x0
   500     0020                     	ds	1
   501     0021                     fputs@fp:
   502                           
   503                           ; 2 bytes @ 0x1
   504     0021                     	ds	2
   505     0023                     ??_fputs:
   506                           
   507                           ; 1 bytes @ 0x3
   508     0023                     	ds	1
   509     0024                     ___lldiv@dividend:
   510                           
   511                           ; 4 bytes @ 0x4
   512     0024                     	ds	1
   513     0025                     fputs@c:
   514                           
   515                           ; 1 bytes @ 0x5
   516     0025                     	ds	1
   517     0026                     fputs@i:
   518                           
   519                           ; 2 bytes @ 0x6
   520     0026                     	ds	2
   521     0028                     ?_pad:
   522     0028                     pad@fp:	
   523                           ; 1 bytes @ 0x8
   524                           
   525     0028                     ___lldiv@quotient:	
   526                           ; 2 bytes @ 0x8
   527                           
   528                           
   529                           ; 4 bytes @ 0x8
   530     0028                     	ds	2
   531     002A                     pad@buf:
   532                           
   533                           ; 1 bytes @ 0xA
   534     002A                     	ds	1
   535     002B                     pad@p:
   536                           
   537                           ; 2 bytes @ 0xB
   538     002B                     	ds	1
   539     002C                     ___lldiv@counter:
   540                           
   541                           ; 1 bytes @ 0xC
   542     002C                     	ds	1
   543     002D                     pad@i:
   544                           
   545                           ; 2 bytes @ 0xD
   546     002D                     	ds	2
   547     002F                     ?_utoa:
   548     002F                     utoa@fp:	
   549                           ; 1 bytes @ 0xF
   550                           
   551                           
   552                           ; 2 bytes @ 0xF
   553     002F                     	ds	2
   554     0031                     utoa@d:
   555                           
   556                           ; 2 bytes @ 0x11
   557     0031                     	ds	2
   558     0033                     utoa@w:
   559                           
   560                           ; 2 bytes @ 0x13
   561     0033                     	ds	2
   562     0035                     utoa@p:
   563                           
   564                           ; 1 bytes @ 0x15
   565     0035                     	ds	1
   566     0036                     utoa@i:
   567                           
   568                           ; 2 bytes @ 0x16
   569     0036                     	ds	2
   570     0038                     ?_vfpfcnvrt:
   571     0038                     vfpfcnvrt@fp:	
   572                           ; 1 bytes @ 0x18
   573                           
   574                           
   575                           ; 2 bytes @ 0x18
   576     0038                     	ds	2
   577     003A                     vfpfcnvrt@fmt:
   578                           
   579                           ; 1 bytes @ 0x1A
   580     003A                     	ds	1
   581     003B                     vfpfcnvrt@ap:
   582                           
   583                           ; 1 bytes @ 0x1B
   584     003B                     	ds	1
   585     003C                     ??_vfpfcnvrt:
   586                           
   587                           ; 1 bytes @ 0x1C
   588     003C                     	ds	2
   589     003E                     vfpfcnvrt@convarg:
   590                           
   591                           ; 4 bytes @ 0x1E
   592     003E                     	ds	4
   593     0042                     vfpfcnvrt@cp:
   594                           
   595                           ; 1 bytes @ 0x22
   596     0042                     	ds	1
   597     0043                     ?_vfprintf:
   598     0043                     vfprintf@fp:	
   599                           ; 2 bytes @ 0x23
   600                           
   601                           
   602                           ; 2 bytes @ 0x23
   603     0043                     	ds	2
   604     0045                     vfprintf@fmt:
   605                           
   606                           ; 1 bytes @ 0x25
   607     0045                     	ds	1
   608     0046                     vfprintf@ap:
   609                           
   610                           ; 1 bytes @ 0x26
   611     0046                     	ds	1
   612     0047                     vfprintf@cfmt:
   613                           
   614                           ; 1 bytes @ 0x27
   615     0047                     	ds	1
   616     0048                     ?_sprintf:
   617     0048                     sprintf@s:	
   618                           ; 2 bytes @ 0x28
   619                           
   620                           
   621                           ; 1 bytes @ 0x28
   622     0048                     	ds	1
   623     0049                     sprintf@fmt:
   624                           
   625                           ; 1 bytes @ 0x29
   626     0049                     	ds	3
   627     004C                     ??_sprintf:
   628                           
   629                           ; 1 bytes @ 0x2C
   630     004C                     	ds	1
   631     004D                     sprintf@ap:
   632                           
   633                           ; 1 bytes @ 0x2D
   634     004D                     	ds	1
   635     004E                     sprintf@f:
   636                           
   637                           ; 11 bytes @ 0x2E
   638     004E                     	ds	11
   639     0059                     ??_main:
   640                           
   641                           ; 1 bytes @ 0x39
   642     0059                     	ds	3
   643     005C                     main@buffer:
   644                           
   645                           ; 16 bytes @ 0x3C
   646     005C                     	ds	16
   647     006C                     main@mv:
   648                           
   649                           ; 2 bytes @ 0x4C
   650     006C                     	ds	2
   651     006E                     main@raw:
   652                           
   653                           ; 2 bytes @ 0x4E
   654     006E                     	ds	2
   655                           
   656                           	psect	maintext
   657     0626                     __pmaintext:	
   658 ;;
   659 ;;Main: autosize = 0, tempsize = 3, incstack = 0, save=0
   660 ;;
   661 ;; *************** function _main *****************
   662 ;; Defined at:
   663 ;;		line 96 in file "ADC_LCD.c"
   664 ;; Parameters:    Size  Location     Type
   665 ;;		None
   666 ;; Auto vars:     Size  Location     Type
   667 ;;  buffer         16   60[BANK0 ] unsigned char [16]
   668 ;;  raw             2   78[BANK0 ] unsigned int 
   669 ;;  mv              2   76[BANK0 ] unsigned int 
   670 ;; Return value:  Size  Location     Type
   671 ;;                  1    wreg      void 
   672 ;; Registers used:
   673 ;;		wreg, fsr0l, fsr0h, status,2, status,0, pclath, cstack
   674 ;; Tracked objects:
   675 ;;		On entry : B00/0
   676 ;;		On exit  : 0/0
   677 ;;		Unchanged: 0/0
   678 ;; Data sizes:     COMMON   BANK0   BANK1   BANK3   BANK2
   679 ;;      Params:         0       0       0       0       0
   680 ;;      Locals:         0      20       0       0       0
   681 ;;      Temps:          0       3       0       0       0
   682 ;;      Totals:         0      23       0       0       0
   683 ;;Total ram usage:       23 bytes
   684 ;; Hardware stack levels required when called: 7
   685 ;; This function calls:
   686 ;;		___lldiv
   687 ;;		___lmul
   688 ;;		_adc_init
   689 ;;		_adc_read_an0
   690 ;;		_lcd_clear
   691 ;;		_lcd_init
   692 ;;		_lcd_set_cursor
   693 ;;		_lcd_string
   694 ;;		_sprintf
   695 ;; This function is called by:
   696 ;;		Startup code after reset
   697 ;; This function uses a non-reentrant model
   698 ;;
   699                           
   700     0626                     _main:	
   701                           ;psect for function _main
   702                           
   703     0626                     l1330:	
   704                           ;incstack = 0
   705                           ; Regs used in _main: [wreg-fsr0h+status,2+status,0+pclath+cstack]
   706                           
   707                           
   708                           ;ADC_LCD.c: 97: ;ADC_LCD.c: 98: ;ADC_LCD.c: 100:         sprintf(buffer, "mV:  %4u", mv)
      +                          ;
   709     0626  120A  118A  23B5  120A  118A  	fcall	_lcd_init
   710                           
   711                           ;ADC_LCD.c: 101:         lcd_string(buffer);
   712     062B  120A  118A  22AC  120A  118A  	fcall	_adc_init
   713                           
   714                           ;ADC_LCD.c: 102: 
   715     0630  120A  118A  229D  120A  118A  	fcall	_lcd_clear
   716     0635                     l1332:
   717                           
   718                           ;ADC_LCD.c: 105: }
   719     0635  120A  118A  22BB  120A  118A  	fcall	_adc_read_an0
   720     063A  0871               	movf	?_adc_read_an0+1,w
   721     063B  1283               	bcf	3,5	;RP0=0, select bank0
   722     063C  1303               	bcf	3,6	;RP1=0, select bank0
   723     063D  00EF               	movwf	main@raw+1
   724     063E  0870               	movf	?_adc_read_an0,w
   725     063F  00EE               	movwf	main@raw
   726     0640                     l1334:
   727     0640  3000               	movlw	0
   728     0641  00A3               	movwf	___lldiv@divisor+3
   729     0642  3000               	movlw	0
   730     0643  00A2               	movwf	___lldiv@divisor+2
   731     0644  3003               	movlw	3
   732     0645  00A1               	movwf	___lldiv@divisor+1
   733     0646  30FF               	movlw	255
   734     0647  00A0               	movwf	___lldiv@divisor
   735     0648  086E               	movf	main@raw,w
   736     0649  00F0               	movwf	___lmul@multiplier
   737     064A  086F               	movf	main@raw+1,w
   738     064B  00F1               	movwf	___lmul@multiplier+1
   739     064C  01F2               	clrf	___lmul@multiplier+2
   740     064D  01F3               	clrf	___lmul@multiplier+3
   741     064E  3000               	movlw	0
   742     064F  00F7               	movwf	___lmul@multiplicand+3
   743     0650  3000               	movlw	0
   744     0651  00F6               	movwf	___lmul@multiplicand+2
   745     0652  3013               	movlw	19
   746     0653  00F5               	movwf	___lmul@multiplicand+1
   747     0654  3088               	movlw	136
   748     0655  00F4               	movwf	___lmul@multiplicand
   749     0656  120A  118A  245F  120A  118A  	fcall	___lmul
   750     065B  0873               	movf	?___lmul+3,w
   751     065C  1283               	bcf	3,5	;RP0=0, select bank0
   752     065D  1303               	bcf	3,6	;RP1=0, select bank0
   753     065E  00A7               	movwf	___lldiv@dividend+3
   754     065F  0872               	movf	?___lmul+2,w
   755     0660  00A6               	movwf	___lldiv@dividend+2
   756     0661  0871               	movf	?___lmul+1,w
   757     0662  00A5               	movwf	___lldiv@dividend+1
   758     0663  0870               	movf	?___lmul,w
   759     0664  00A4               	movwf	___lldiv@dividend
   760     0665  120A  118A  254F  120A  118A  	fcall	___lldiv
   761     066A  1283               	bcf	3,5	;RP0=0, select bank0
   762     066B  1303               	bcf	3,6	;RP1=0, select bank0
   763     066C  0821               	movf	?___lldiv+1,w
   764     066D  00ED               	movwf	main@mv+1
   765     066E  0820               	movf	?___lldiv,w
   766     066F  00EC               	movwf	main@mv
   767     0670                     l1336:
   768     0670  01F3               	clrf	lcd_set_cursor@col
   769     0671  0AF3               	incf	lcd_set_cursor@col,f
   770     0672  3001               	movlw	1
   771     0673  120A  118A  2309  120A  118A  	fcall	_lcd_set_cursor
   772     0678                     l1338:
   773     0678  305C               	movlw	(low (main@buffer| 0))& (0+255)
   774     0679  1283               	bcf	3,5	;RP0=0, select bank0
   775     067A  1303               	bcf	3,6	;RP1=0, select bank0
   776     067B  00C8               	movwf	sprintf@s
   777     067C  300A               	movlw	(low ((STR_1-__stringbase)| (0+32768)))& (0+255)
   778     067D  00C9               	movwf	sprintf@fmt
   779     067E  086F               	movf	main@raw+1,w
   780     067F  00CB               	movwf	?_sprintf+3
   781     0680  086E               	movf	main@raw,w
   782     0681  00CA               	movwf	?_sprintf+2
   783     0682  120A  118A  2342  120A  118A  	fcall	_sprintf
   784     0687                     l1340:
   785     0687  305C               	movlw	(low (main@buffer| 0))& (0+255)
   786     0688  00F3               	movwf	lcd_string@str
   787     0689  120A  118A  22F5  120A  118A  	fcall	_lcd_string
   788     068E                     l1342:
   789     068E  01F3               	clrf	lcd_set_cursor@col
   790     068F  0AF3               	incf	lcd_set_cursor@col,f
   791     0690  3002               	movlw	2
   792     0691  120A  118A  2309  120A  118A  	fcall	_lcd_set_cursor
   793     0696                     l1344:
   794     0696  305C               	movlw	(low (main@buffer| 0))& (0+255)
   795     0697  1283               	bcf	3,5	;RP0=0, select bank0
   796     0698  1303               	bcf	3,6	;RP1=0, select bank0
   797     0699  00C8               	movwf	sprintf@s
   798     069A  3001               	movlw	(low ((STR_2-__stringbase)| (0+32768)))& (0+255)
   799     069B  00C9               	movwf	sprintf@fmt
   800     069C  086D               	movf	main@mv+1,w
   801     069D  00CB               	movwf	?_sprintf+3
   802     069E  086C               	movf	main@mv,w
   803     069F  00CA               	movwf	?_sprintf+2
   804     06A0  120A  118A  2342  120A  118A  	fcall	_sprintf
   805     06A5                     l1346:
   806     06A5  305C               	movlw	(low (main@buffer| 0))& (0+255)
   807     06A6  00F3               	movwf	lcd_string@str
   808     06A7  120A  118A  22F5  120A  118A  	fcall	_lcd_string
   809     06AC                     l1348:
   810     06AC  3004               	movlw	4
   811     06AD  1283               	bcf	3,5	;RP0=0, select bank0
   812     06AE  1303               	bcf	3,6	;RP1=0, select bank0
   813     06AF  00DB               	movwf	??_main+2
   814     06B0  30CF               	movlw	207
   815     06B1  00DA               	movwf	??_main+1
   816     06B2  3001               	movlw	1
   817     06B3  00D9               	movwf	??_main
   818     06B4                     u1037:
   819     06B4  0BD9               	decfsz	??_main,f
   820     06B5  2EB4               	goto	u1037
   821     06B6  0BDA               	decfsz	??_main+1,f
   822     06B7  2EB4               	goto	u1037
   823     06B8  0BDB               	decfsz	??_main+2,f
   824     06B9  2EB4               	goto	u1037
   825     06BA  2E35               	goto	l1332
   826     06BB  120A  118A  2800   	ljmp	start
   827     06BE                     __end_of_main:
   828                           
   829                           	psect	text1
   830     0342                     __ptext1:	
   831 ;; *************** function _sprintf *****************
   832 ;; Defined at:
   833 ;;		line 9 in file "C:\Program Files\Microchip\xc8\v3.10\pic\sources\c99\common\nf_sprintf.c"
   834 ;; Parameters:    Size  Location     Type
   835 ;;  s               1   40[BANK0 ] PTR unsigned char 
   836 ;;		 -> main@buffer(16), 
   837 ;;  fmt             1   41[BANK0 ] PTR const unsigned char 
   838 ;;		 -> STR_2(9), STR_1(9), 
   839 ;; Auto vars:     Size  Location     Type
   840 ;;  f              11   46[BANK0 ] struct _IO_FILE
   841 ;;  ret             2    0        int 
   842 ;;  ap              1   45[BANK0 ] PTR void [1]
   843 ;;		 -> ?_sprintf(2), 
   844 ;; Return value:  Size  Location     Type
   845 ;;                  2   40[BANK0 ] int 
   846 ;; Registers used:
   847 ;;		wreg, fsr0l, fsr0h, status,2, status,0, pclath, cstack
   848 ;; Tracked objects:
   849 ;;		On entry : 0/0
   850 ;;		On exit  : 0/0
   851 ;;		Unchanged: 0/0
   852 ;; Data sizes:     COMMON   BANK0   BANK1   BANK3   BANK2
   853 ;;      Params:         0       4       0       0       0
   854 ;;      Locals:         0      12       0       0       0
   855 ;;      Temps:          0       1       0       0       0
   856 ;;      Totals:         0      17       0       0       0
   857 ;;Total ram usage:       17 bytes
   858 ;; Hardware stack levels used: 1
   859 ;; Hardware stack levels required when called: 6
   860 ;; This function calls:
   861 ;;		_vfprintf
   862 ;; This function is called by:
   863 ;;		_main
   864 ;; This function uses a non-reentrant model
   865 ;;
   866                           
   867     0342                     _sprintf:	
   868                           ;psect for function _sprintf
   869                           
   870     0342                     l1278:	
   871                           ;incstack = 0
   872                           ; Regs used in _sprintf: [wreg-fsr0h+status,2+status,0+pclath+cstack]
   873                           
   874     0342  304A               	movlw	(low ((?_sprintf| 0+2)))& (0+255)
   875     0343  1283               	bcf	3,5	;RP0=0, select bank0
   876     0344  1303               	bcf	3,6	;RP1=0, select bank0
   877     0345  00CD               	movwf	sprintf@ap
   878     0346                     l1280:
   879     0346  0848               	movf	sprintf@s,w
   880     0347  00CE               	movwf	sprintf@f
   881     0348  3000               	movlw	0
   882     0349  00CF               	movwf	sprintf@f+1
   883     034A                     l1282:
   884     034A  01D0               	clrf	sprintf@f+2
   885     034B  01D1               	clrf	sprintf@f+3
   886     034C                     l1284:
   887     034C  01D7               	clrf	sprintf@f+9
   888     034D  01D8               	clrf	sprintf@f+10
   889     034E                     l1286:
   890     034E  304E               	movlw	low sprintf@f
   891     034F  00C3               	movwf	vfprintf@fp
   892     0350  3000               	movlw	high sprintf@f
   893     0351  00C4               	movwf	vfprintf@fp+1
   894     0352  0849               	movf	sprintf@fmt,w
   895     0353  00C5               	movwf	vfprintf@fmt
   896     0354  304D               	movlw	(low (sprintf@ap| 0))& (0+255)
   897     0355  00C6               	movwf	vfprintf@ap
   898     0356  120A  118A  231F  120A  118A  	fcall	_vfprintf
   899     035B                     l1288:
   900     035B  1283               	bcf	3,5	;RP0=0, select bank0
   901     035C  1303               	bcf	3,6	;RP1=0, select bank0
   902     035D  0850               	movf	sprintf@f+2,w
   903     035E  0748               	addwf	sprintf@s,w
   904     035F  00CC               	movwf	??_sprintf
   905     0360  084C               	movf	??_sprintf,w
   906     0361  0084               	movwf	4
   907     0362  1383               	bcf	3,7	;select IRP bank0
   908     0363  0180               	clrf	0
   909     0364                     l617:
   910     0364  0008               	return
   911     0365                     __end_of_sprintf:
   912                           
   913                           	psect	text2
   914     031F                     __ptext2:	
   915 ;; *************** function _vfprintf *****************
   916 ;; Defined at:
   917 ;;		line 1817 in file "C:\Program Files\Microchip\xc8\v3.10\pic\sources\c99\common\doprnt.c"
   918 ;; Parameters:    Size  Location     Type
   919 ;;  fp              2   35[BANK0 ] PTR struct _IO_FILE
   920 ;;		 -> sprintf@f(11), 
   921 ;;  fmt             1   37[BANK0 ] PTR const unsigned char 
   922 ;;		 -> STR_2(9), STR_1(9), 
   923 ;;  ap              1   38[BANK0 ] PTR PTR void 
   924 ;;		 -> sprintf@ap(1), 
   925 ;; Auto vars:     Size  Location     Type
   926 ;;  cfmt            1   39[BANK0 ] PTR unsigned char 
   927 ;;		 -> STR_2(9), STR_1(9), 
   928 ;; Return value:  Size  Location     Type
   929 ;;                  2   35[BANK0 ] int 
   930 ;; Registers used:
   931 ;;		wreg, fsr0l, fsr0h, status,2, status,0, pclath, cstack
   932 ;; Tracked objects:
   933 ;;		On entry : 0/0
   934 ;;		On exit  : 0/0
   935 ;;		Unchanged: 0/0
   936 ;; Data sizes:     COMMON   BANK0   BANK1   BANK3   BANK2
   937 ;;      Params:         0       4       0       0       0
   938 ;;      Locals:         0       1       0       0       0
   939 ;;      Temps:          0       0       0       0       0
   940 ;;      Totals:         0       5       0       0       0
   941 ;;Total ram usage:        5 bytes
   942 ;; Hardware stack levels used: 1
   943 ;; Hardware stack levels required when called: 5
   944 ;; This function calls:
   945 ;;		_vfpfcnvrt
   946 ;; This function is called by:
   947 ;;		_sprintf
   948 ;; This function uses a non-reentrant model
   949 ;;
   950                           
   951     031F                     _vfprintf:	
   952                           ;psect for function _vfprintf
   953                           
   954     031F                     l1222:	
   955                           ;incstack = 0
   956                           ; Regs used in _vfprintf: [wreg-fsr0h+status,2+status,0+pclath+cstack]
   957                           
   958                           
   959                           ;C:\Program Files\Microchip\xc8\v3.10\pic\sources\c99\common\doprnt.c: 1817: int vfprint
      +                          f(FILE *fp, const char *fmt, va_list ap);C:\Program Files\Microchip\xc8\v3.10\pic\source
      +                          s\c99\common\doprnt.c: 1818: {;C:\Program Files\Microchip\xc8\v3.10\pic\sources\c99\comm
      +                          on\doprnt.c: 1820:     char *cfmt;;C:\Program Files\Microchip\xc8\v3.10\pic\sources\c99\
      +                          common\doprnt.c: 1822:     cfmt = (char *)fmt;
   960     031F  1283               	bcf	3,5	;RP0=0, select bank0
   961     0320  1303               	bcf	3,6	;RP1=0, select bank0
   962     0321  0845               	movf	vfprintf@fmt,w
   963     0322  00C7               	movwf	vfprintf@cfmt
   964                           
   965                           ;C:\Program Files\Microchip\xc8\v3.10\pic\sources\c99\common\doprnt.c: 1826:     while (
      +                          *cfmt) {
   966     0323  2B31               	goto	l1226
   967     0324                     l1224:
   968                           
   969                           ;C:\Program Files\Microchip\xc8\v3.10\pic\sources\c99\common\doprnt.c: 1830:    vfpfcnvr
      +                          t(fp, &cfmt, ap);
   970     0324  0843               	movf	vfprintf@fp,w
   971     0325  00B8               	movwf	vfpfcnvrt@fp
   972     0326  0844               	movf	vfprintf@fp+1,w
   973     0327  00B9               	movwf	vfpfcnvrt@fp+1
   974     0328  3047               	movlw	(low (vfprintf@cfmt| 0))& (0+255)
   975     0329  00BA               	movwf	vfpfcnvrt@fmt
   976     032A  0846               	movf	vfprintf@ap,w
   977     032B  00BB               	movwf	vfpfcnvrt@ap
   978     032C  120A  118A  2758  120A  118A  	fcall	_vfpfcnvrt
   979     0331                     l1226:
   980                           
   981                           ;C:\Program Files\Microchip\xc8\v3.10\pic\sources\c99\common\doprnt.c: 1826:     while (
      +                          *cfmt) {
   982     0331  1283               	bcf	3,5	;RP0=0, select bank0
   983     0332  1303               	bcf	3,6	;RP1=0, select bank0
   984     0333  0847               	movf	vfprintf@cfmt,w
   985     0334  0084               	movwf	4
   986     0335  120A  118A  2003  120A  118A  	fcall	stringdir
   987     033A  3A00               	xorlw	0
   988     033B  1D03               	skipz
   989     033C  2B3E               	goto	u871
   990     033D  2B3F               	goto	u870
   991     033E                     u871:
   992     033E  2B24               	goto	l1224
   993     033F                     u870:
   994     033F                     l1228:
   995                           
   996                           ;C:\Program Files\Microchip\xc8\v3.10\pic\sources\c99\common\doprnt.c: 1835:  return 0;
   997     033F  01C3               	clrf	?_vfprintf
   998     0340  01C4               	clrf	?_vfprintf+1
   999     0341                     l673:
  1000     0341  0008               	return
  1001     0342                     __end_of_vfprintf:
  1002                           
  1003                           	psect	text3
  1004     0758                     __ptext3:	
  1005 ;; *************** function _vfpfcnvrt *****************
  1006 ;; Defined at:
  1007 ;;		line 1177 in file "C:\Program Files\Microchip\xc8\v3.10\pic\sources\c99\common\doprnt.c"
  1008 ;; Parameters:    Size  Location     Type
  1009 ;;  fp              2   24[BANK0 ] PTR struct _IO_FILE
  1010 ;;		 -> sprintf@f(11), 
  1011 ;;  fmt             1   26[BANK0 ] PTR PTR unsigned char 
  1012 ;;		 -> vfprintf@cfmt(1), 
  1013 ;;  ap              1   27[BANK0 ] PTR PTR void 
  1014 ;;		 -> sprintf@ap(1), 
  1015 ;; Auto vars:     Size  Location     Type
  1016 ;;  convarg         4   30[BANK0 ] struct .
  1017 ;;  cp              1   34[BANK0 ] PTR unsigned char 
  1018 ;;		 -> STR_2(9), STR_1(9), 
  1019 ;;  done            1    0        _Bool 
  1020 ;;  c               1    0        unsigned char 
  1021 ;; Return value:  Size  Location     Type
  1022 ;;                  1    wreg      void 
  1023 ;; Registers used:
  1024 ;;		wreg, fsr0l, fsr0h, status,2, status,0, pclath, cstack
  1025 ;; Tracked objects:
  1026 ;;		On entry : 0/0
  1027 ;;		On exit  : 0/0
  1028 ;;		Unchanged: 0/0
  1029 ;; Data sizes:     COMMON   BANK0   BANK1   BANK3   BANK2
  1030 ;;      Params:         0       4       0       0       0
  1031 ;;      Locals:         0       5       0       0       0
  1032 ;;      Temps:          0       2       0       0       0
  1033 ;;      Totals:         0      11       0       0       0
  1034 ;;Total ram usage:       11 bytes
  1035 ;; Hardware stack levels used: 1
  1036 ;; Hardware stack levels required when called: 4
  1037 ;; This function calls:
  1038 ;;		_fputc
  1039 ;;		_read_prec_or_width
  1040 ;;		_utoa
  1041 ;; This function is called by:
  1042 ;;		_vfprintf
  1043 ;; This function uses a non-reentrant model
  1044 ;;
  1045                           
  1046     0758                     _vfpfcnvrt:	
  1047                           ;psect for function _vfpfcnvrt
  1048                           
  1049     0758                     l1166:	
  1050                           ;incstack = 0
  1051                           ; Regs used in _vfpfcnvrt: [wreg-fsr0h+status,2+status,0+pclath+cstack]
  1052                           
  1053                           
  1054                           ;C:\Program Files\Microchip\xc8\v3.10\pic\sources\c99\common\doprnt.c: 1177: vfpfcnvrt(F
      +                          ILE *fp, char *fmt[], va_list ap);C:\Program Files\Microchip\xc8\v3.10\pic\sources\c99\c
      +                          ommon\doprnt.c: 1178: {;C:\Program Files\Microchip\xc8\v3.10\pic\sources\c99\common\dopr
      +                          nt.c: 1179:     char c, *cp;;C:\Program Files\Microchip\xc8\v3.10\pic\sources\c99\common
      +                          \doprnt.c: 1180:     _Bool done;;C:\Program Files\Microchip\xc8\v3.10\pic\sources\c99\co
      +                          mmon\doprnt.c: 1188:  } convarg;;C:\Program Files\Microchip\xc8\v3.10\pic\sources\c99\co
      +                          mmon\doprnt.c: 1201:     if ((*fmt)[0] == '%') {
  1055     0758  1283               	bcf	3,5	;RP0=0, select bank0
  1056     0759  1303               	bcf	3,6	;RP1=0, select bank0
  1057     075A  083A               	movf	vfpfcnvrt@fmt,w
  1058     075B  0084               	movwf	4
  1059     075C  1383               	bcf	3,7	;select IRP bank0
  1060     075D  0800               	movf	0,w
  1061     075E  0084               	movwf	4
  1062     075F  120A  118A  2003  120A  118A  	fcall	stringdir
  1063     0764  3A25               	xorlw	37
  1064     0765  1D03               	skipz
  1065     0766  2F68               	goto	u841
  1066     0767  2F69               	goto	u840
  1067     0768                     u841:
  1068     0768  2FD9               	goto	l1200
  1069     0769                     u840:
  1070     0769                     l1168:
  1071                           
  1072                           ;C:\Program Files\Microchip\xc8\v3.10\pic\sources\c99\common\doprnt.c: 1202:         ++*
      +                          fmt;
  1073     0769  083A               	movf	vfpfcnvrt@fmt,w
  1074     076A  0084               	movwf	4
  1075     076B  3001               	movlw	1
  1076     076C  0780               	addwf	0,f
  1077     076D                     l1170:
  1078                           
  1079                           ;C:\Program Files\Microchip\xc8\v3.10\pic\sources\c99\common\doprnt.c: 1204:         fla
      +                          gs = width = 0;
  1080     076D  1683               	bsf	3,5	;RP0=1, select bank1
  1081     076E  1303               	bcf	3,6	;RP1=0, select bank1
  1082     076F  01A0               	clrf	_width^(0+128)
  1083     0770  01A1               	clrf	(_width+1)^(0+128)
  1084     0771  3000               	movlw	0
  1085     0772  00A4               	movwf	_flags^(0+128)
  1086     0773                     l1172:
  1087                           
  1088                           ;C:\Program Files\Microchip\xc8\v3.10\pic\sources\c99\common\doprnt.c: 1205:         pre
      +                          c = -1;
  1089     0773  30FF               	movlw	255
  1090     0774  00A2               	movwf	_prec^(0+128)
  1091     0775  30FF               	movlw	255
  1092     0776  00A3               	movwf	(_prec^(0+128)+1)
  1093     0777                     l1174:
  1094                           
  1095                           ;C:\Program Files\Microchip\xc8\v3.10\pic\sources\c99\common\doprnt.c: 1256:   width = r
      +                          ead_prec_or_width(fmt, ap);
  1096     0777  1283               	bcf	3,5	;RP0=0, select bank0
  1097     0778  1303               	bcf	3,6	;RP1=0, select bank0
  1098     0779  083A               	movf	vfpfcnvrt@fmt,w
  1099     077A  00F6               	movwf	read_prec_or_width@fmt
  1100     077B  083B               	movf	vfpfcnvrt@ap,w
  1101     077C  00F7               	movwf	read_prec_or_width@ap
  1102     077D  120A  118A  24A5  120A  118A  	fcall	_read_prec_or_width
  1103     0782  0877               	movf	?_read_prec_or_width+1,w
  1104     0783  1683               	bsf	3,5	;RP0=1, select bank1
  1105     0784  1303               	bcf	3,6	;RP1=0, select bank1
  1106     0785  00A1               	movwf	(_width+1)^(0+128)
  1107     0786  0876               	movf	?_read_prec_or_width,w
  1108     0787  00A0               	movwf	_width^(0+128)
  1109     0788                     l1176:
  1110                           
  1111                           ;C:\Program Files\Microchip\xc8\v3.10\pic\sources\c99\common\doprnt.c: 1257:   if (width
      +                           < 0) {
  1112     0788  1FA1               	btfss	(_width+1)^(0+128),7
  1113     0789  2F8B               	goto	u851
  1114     078A  2F8C               	goto	u850
  1115     078B                     u851:
  1116     078B  2F92               	goto	l1182
  1117     078C                     u850:
  1118     078C                     l1178:
  1119                           
  1120                           ;C:\Program Files\Microchip\xc8\v3.10\pic\sources\c99\common\doprnt.c: 1258:    flags |=
      +                           (1 << 0);
  1121     078C  1424               	bsf	_flags^(0+128),0
  1122     078D                     l1180:
  1123                           
  1124                           ;C:\Program Files\Microchip\xc8\v3.10\pic\sources\c99\common\doprnt.c: 1259:    width = 
      +                          -width;
  1125     078D  09A0               	comf	_width^(0+128),f
  1126     078E  09A1               	comf	(_width+1)^(0+128),f
  1127     078F  0AA0               	incf	_width^(0+128),f
  1128     0790  1903               	skipnz
  1129     0791  0AA1               	incf	(_width+1)^(0+128),f
  1130     0792                     l1182:
  1131                           
  1132                           ;C:\Program Files\Microchip\xc8\v3.10\pic\sources\c99\common\doprnt.c: 1439:   if (0
  1133     0792  1283               	bcf	3,5	;RP0=0, select bank0
  1134     0793  1303               	bcf	3,6	;RP1=0, select bank0
  1135     0794  083A               	movf	vfpfcnvrt@fmt,w
  1136     0795  0084               	movwf	4
  1137     0796  1383               	bcf	3,7	;select IRP bank0
  1138     0797  0800               	movf	0,w
  1139     0798  00C2               	movwf	vfpfcnvrt@cp
  1140     0799                     l1184:
  1141     0799  0842               	movf	vfpfcnvrt@cp,w
  1142     079A  0084               	movwf	4
  1143     079B  120A  118A  2003  120A  118A  	fcall	stringdir
  1144     07A0  3A75               	xorlw	117
  1145     07A1  1D03               	skipz
  1146     07A2  2FA4               	goto	u861
  1147     07A3  2FA5               	goto	u860
  1148     07A4                     u861:
  1149     07A4  2FD1               	goto	l1196
  1150     07A5                     u860:
  1151     07A5                     l1186:
  1152                           
  1153                           ;C:\Program Files\Microchip\xc8\v3.10\pic\sources\c99\common\doprnt.c: 1452:     ) {;C:\
      +                          Program Files\Microchip\xc8\v3.10\pic\sources\c99\common\doprnt.c: 1495:    convarg.uint
      +                           = (vfpf_uint_t)(unsigned int)(*(unsigned int *)__va_arg(*(unsigned int **)ap, (unsigned
      +                           int)0));
  1154     07A5  083B               	movf	vfpfcnvrt@ap,w
  1155     07A6  0084               	movwf	4
  1156     07A7  0800               	movf	0,w
  1157     07A8  00BC               	movwf	??_vfpfcnvrt
  1158     07A9  3002               	movlw	2
  1159     07AA  0780               	addwf	0,f
  1160     07AB  083C               	movf	??_vfpfcnvrt,w
  1161     07AC  0084               	movwf	4
  1162     07AD  0800               	movf	0,w
  1163     07AE  00BE               	movwf	vfpfcnvrt@convarg
  1164     07AF  0A84               	incf	4,f
  1165     07B0  0800               	movf	0,w
  1166     07B1  00BF               	movwf	vfpfcnvrt@convarg+1
  1167                           
  1168                           ;C:\Program Files\Microchip\xc8\v3.10\pic\sources\c99\common\doprnt.c: 1497:    *fmt = c
      +                          p+1;
  1169     07B2  083A               	movf	vfpfcnvrt@fmt,w
  1170     07B3  0084               	movwf	4
  1171     07B4  0842               	movf	vfpfcnvrt@cp,w
  1172     07B5  3E01               	addlw	1
  1173     07B6  0080               	movwf	0
  1174                           
  1175                           ;C:\Program Files\Microchip\xc8\v3.10\pic\sources\c99\common\doprnt.c: 1498:    switch (
      +                          *cp) {
  1176     07B7  2FC6               	goto	l1194
  1177     07B8                     l1188:
  1178                           
  1179                           ;C:\Program Files\Microchip\xc8\v3.10\pic\sources\c99\common\doprnt.c: 1542:      return
      +                           (void) utoa(fp, convarg.uint);;	Return value of _vfpfcnvrt is never used
  1180     07B8  0838               	movf	vfpfcnvrt@fp,w
  1181     07B9  00AF               	movwf	utoa@fp
  1182     07BA  0839               	movf	vfpfcnvrt@fp+1,w
  1183     07BB  00B0               	movwf	utoa@fp+1
  1184     07BC  083F               	movf	vfpfcnvrt@convarg+1,w
  1185     07BD  00B2               	movwf	utoa@d+1
  1186     07BE  083E               	movf	vfpfcnvrt@convarg,w
  1187     07BF  00B1               	movwf	utoa@d
  1188     07C0  120A  118A  25B5  120A  118A  	fcall	_utoa
  1189     07C5  2FF2               	goto	l666
  1190     07C6                     l1194:
  1191     07C6  0842               	movf	vfpfcnvrt@cp,w
  1192     07C7  0084               	movwf	4
  1193     07C8  120A  118A  2003  120A  118A  	fcall	stringdir
  1194                           
  1195                           ; Switch size 1, requested type "simple"
  1196                           ; Number of cases is 1, Range of values is 117 to 117
  1197                           ; switch strategies available:
  1198                           ; Name         Instructions Cycles
  1199                           ; simple_byte            4     3 (average)
  1200                           ; direct_byte           14    11 (fixed)
  1201                           ; jumptable            263     9 (fixed)
  1202                           ;	Chosen strategy is simple_byte
  1203     07CD  3A75               	xorlw	117	; case 117
  1204     07CE  1903               	skipnz
  1205     07CF  2FB8               	goto	l1188
  1206     07D0  2FD1               	goto	l1196
  1207     07D1                     l1196:
  1208                           
  1209                           ;C:\Program Files\Microchip\xc8\v3.10\pic\sources\c99\common\doprnt.c: 1806:         ++*
      +                          fmt;
  1210     07D1  1283               	bcf	3,5	;RP0=0, select bank0
  1211     07D2  1303               	bcf	3,6	;RP1=0, select bank0
  1212     07D3  083A               	movf	vfpfcnvrt@fmt,w
  1213     07D4  0084               	movwf	4
  1214     07D5  3001               	movlw	1
  1215     07D6  1383               	bcf	3,7	;select IRP bank0
  1216     07D7  0780               	addwf	0,f
  1217     07D8  2FF2               	goto	l666
  1218     07D9                     l1200:
  1219                           
  1220                           ;C:\Program Files\Microchip\xc8\v3.10\pic\sources\c99\common\doprnt.c: 1811:     fputc((
      +                          int)(*fmt)[0], fp);
  1221     07D9  083A               	movf	vfpfcnvrt@fmt,w
  1222     07DA  0084               	movwf	4
  1223     07DB  0800               	movf	0,w
  1224     07DC  0084               	movwf	4
  1225     07DD  120A  118A  2003  120A  118A  	fcall	stringdir
  1226     07E2  00BC               	movwf	??_vfpfcnvrt
  1227     07E3  01BD               	clrf	??_vfpfcnvrt+1
  1228     07E4  083C               	movf	??_vfpfcnvrt,w
  1229     07E5  00F0               	movwf	fputc@c
  1230     07E6  083D               	movf	??_vfpfcnvrt+1,w
  1231     07E7  00F1               	movwf	fputc@c+1
  1232     07E8  0838               	movf	vfpfcnvrt@fp,w
  1233     07E9  00F2               	movwf	fputc@fp
  1234     07EA  0839               	movf	vfpfcnvrt@fp+1,w
  1235     07EB  00F3               	movwf	fputc@fp+1
  1236     07EC  120A  118A  26BE  120A  118A  	fcall	_fputc
  1237     07F1  2FD1               	goto	l1196
  1238     07F2                     l666:
  1239     07F2  0008               	return
  1240     07F3                     __end_of_vfpfcnvrt:
  1241                           
  1242                           	psect	text4
  1243     05B5                     __ptext4:	
  1244 ;; *************** function _utoa *****************
  1245 ;; Defined at:
  1246 ;;		line 1001 in file "C:\Program Files\Microchip\xc8\v3.10\pic\sources\c99\common\doprnt.c"
  1247 ;; Parameters:    Size  Location     Type
  1248 ;;  fp              2   15[BANK0 ] PTR struct _IO_FILE
  1249 ;;		 -> sprintf@f(11), 
  1250 ;;  d               2   17[BANK0 ] unsigned int 
  1251 ;; Auto vars:     Size  Location     Type
  1252 ;;  i               2   22[BANK0 ] int 
  1253 ;;  w               2   19[BANK0 ] int 
  1254 ;;  p               1   21[BANK0 ] _Bool 
  1255 ;; Return value:  Size  Location     Type
  1256 ;;                  1    wreg      void 
  1257 ;; Registers used:
  1258 ;;		wreg, fsr0l, fsr0h, status,2, status,0, pclath, cstack
  1259 ;; Tracked objects:
  1260 ;;		On entry : 0/0
  1261 ;;		On exit  : 0/0
  1262 ;;		Unchanged: 0/0
  1263 ;; Data sizes:     COMMON   BANK0   BANK1   BANK3   BANK2
  1264 ;;      Params:         0       4       0       0       0
  1265 ;;      Locals:         0       5       0       0       0
  1266 ;;      Temps:          0       0       0       0       0
  1267 ;;      Totals:         0       9       0       0       0
  1268 ;;Total ram usage:        9 bytes
  1269 ;; Hardware stack levels used: 1
  1270 ;; Hardware stack levels required when called: 3
  1271 ;; This function calls:
  1272 ;;		___lwdiv
  1273 ;;		___lwmod
  1274 ;;		_pad
  1275 ;; This function is called by:
  1276 ;;		_vfpfcnvrt
  1277 ;; This function uses a non-reentrant model
  1278 ;;
  1279                           
  1280     05B5                     _utoa:	
  1281                           ;psect for function _utoa
  1282                           
  1283     05B5                     l1124:	
  1284                           ;incstack = 0
  1285                           ; Regs used in _utoa: [wreg-fsr0h+status,2+status,0+pclath+cstack]
  1286                           
  1287                           
  1288                           ;C:\Program Files\Microchip\xc8\v3.10\pic\sources\c99\common\doprnt.c: 1001: static void
      +                           utoa(FILE *fp, vfpf_uint_t d);C:\Program Files\Microchip\xc8\v3.10\pic\sources\c99\comm
      +                          on\doprnt.c: 1002: {;C:\Program Files\Microchip\xc8\v3.10\pic\sources\c99\common\doprnt.
      +                          c: 1003:     int i, w;;C:\Program Files\Microchip\xc8\v3.10\pic\sources\c99\common\doprn
      +                          t.c: 1007:  _Bool p = 1;
  1289     05B5  3001               	movlw	1
  1290     05B6  1283               	bcf	3,5	;RP0=0, select bank0
  1291     05B7  1303               	bcf	3,6	;RP1=0, select bank0
  1292     05B8  00B5               	movwf	utoa@p
  1293     05B9                     l1126:
  1294                           
  1295                           ;C:\Program Files\Microchip\xc8\v3.10\pic\sources\c99\common\doprnt.c: 1019:     w = wid
      +                          th;
  1296     05B9  1683               	bsf	3,5	;RP0=1, select bank1
  1297     05BA  1303               	bcf	3,6	;RP1=0, select bank1
  1298     05BB  0821               	movf	(_width+1)^(0+128),w
  1299     05BC  1283               	bcf	3,5	;RP0=0, select bank0
  1300     05BD  1303               	bcf	3,6	;RP1=0, select bank0
  1301     05BE  00B4               	movwf	utoa@w+1
  1302     05BF  1683               	bsf	3,5	;RP0=1, select bank1
  1303     05C0  1303               	bcf	3,6	;RP1=0, select bank1
  1304     05C1  0820               	movf	_width^(0+128),w
  1305     05C2  1283               	bcf	3,5	;RP0=0, select bank0
  1306     05C3  1303               	bcf	3,6	;RP1=0, select bank0
  1307     05C4  00B3               	movwf	utoa@w
  1308                           
  1309                           ;C:\Program Files\Microchip\xc8\v3.10\pic\sources\c99\common\doprnt.c: 1022:     i = siz
      +                          eof(dbuf) - 1;
  1310     05C5  301F               	movlw	31
  1311     05C6  00B6               	movwf	utoa@i
  1312     05C7  3000               	movlw	0
  1313     05C8  00B7               	movwf	utoa@i+1
  1314     05C9                     l1128:
  1315                           
  1316                           ;C:\Program Files\Microchip\xc8\v3.10\pic\sources\c99\common\doprnt.c: 1023:     dbuf[i]
      +                           = '\0';
  1317     05C9  1683               	bsf	3,5	;RP0=1, select bank1
  1318     05CA  1303               	bcf	3,6	;RP1=0, select bank1
  1319     05CB  01C4               	clrf	(_dbuf^(0+128)+31)
  1320                           
  1321                           ;C:\Program Files\Microchip\xc8\v3.10\pic\sources\c99\common\doprnt.c: 1024:     while (
      +                          i && (d != 0
  1322     05CC  2E03               	goto	l1140
  1323     05CD                     l1130:
  1324                           
  1325                           ;C:\Program Files\Microchip\xc8\v3.10\pic\sources\c99\common\doprnt.c: 1033:     )) {;C:
      +                          \Program Files\Microchip\xc8\v3.10\pic\sources\c99\common\doprnt.c: 1034:         --i;
  1326     05CD  30FF               	movlw	255
  1327     05CE  07B6               	addwf	utoa@i,f
  1328     05CF  1803               	skipnc
  1329     05D0  0AB7               	incf	utoa@i+1,f
  1330     05D1  30FF               	movlw	255
  1331     05D2  07B7               	addwf	utoa@i+1,f
  1332     05D3                     l1132:
  1333                           
  1334                           ;C:\Program Files\Microchip\xc8\v3.10\pic\sources\c99\common\doprnt.c: 1035:         dbu
      +                          f[i] = '0' + (d % 10);
  1335     05D3  0836               	movf	utoa@i,w
  1336     05D4  3EA5               	addlw	(low (_dbuf| 0))& (0+255)
  1337     05D5  0084               	movwf	4
  1338     05D6  300A               	movlw	10
  1339     05D7  00F0               	movwf	___lwmod@divisor
  1340     05D8  3000               	movlw	0
  1341     05D9  00F1               	movwf	___lwmod@divisor+1
  1342     05DA  0832               	movf	utoa@d+1,w
  1343     05DB  00F3               	movwf	___lwmod@dividend+1
  1344     05DC  0831               	movf	utoa@d,w
  1345     05DD  00F2               	movwf	___lwmod@dividend
  1346     05DE  120A  118A  23E5  120A  118A  	fcall	___lwmod
  1347     05E3  0870               	movf	?___lwmod,w
  1348     05E4  3E30               	addlw	48
  1349     05E5  1383               	bcf	3,7	;select IRP bank1
  1350     05E6  0080               	movwf	0
  1351     05E7                     l1134:
  1352                           
  1353                           ;C:\Program Files\Microchip\xc8\v3.10\pic\sources\c99\common\doprnt.c: 1039:   p = 0;
  1354     05E7  1283               	bcf	3,5	;RP0=0, select bank0
  1355     05E8  1303               	bcf	3,6	;RP1=0, select bank0
  1356     05E9  01B5               	clrf	utoa@p
  1357     05EA                     l1136:
  1358                           
  1359                           ;C:\Program Files\Microchip\xc8\v3.10\pic\sources\c99\common\doprnt.c: 1041:         --w
      +                          ;
  1360     05EA  30FF               	movlw	255
  1361     05EB  07B3               	addwf	utoa@w,f
  1362     05EC  1803               	skipnc
  1363     05ED  0AB4               	incf	utoa@w+1,f
  1364     05EE  30FF               	movlw	255
  1365     05EF  07B4               	addwf	utoa@w+1,f
  1366     05F0                     l1138:
  1367                           
  1368                           ;C:\Program Files\Microchip\xc8\v3.10\pic\sources\c99\common\doprnt.c: 1042:         d =
      +                           d / 10;
  1369     05F0  300A               	movlw	10
  1370     05F1  00F0               	movwf	___lwdiv@divisor
  1371     05F2  3000               	movlw	0
  1372     05F3  00F1               	movwf	___lwdiv@divisor+1
  1373     05F4  0832               	movf	utoa@d+1,w
  1374     05F5  00F3               	movwf	___lwdiv@dividend+1
  1375     05F6  0831               	movf	utoa@d,w
  1376     05F7  00F2               	movwf	___lwdiv@dividend
  1377     05F8  120A  118A  241D  120A  118A  	fcall	___lwdiv
  1378     05FD  0871               	movf	?___lwdiv+1,w
  1379     05FE  1283               	bcf	3,5	;RP0=0, select bank0
  1380     05FF  1303               	bcf	3,6	;RP1=0, select bank0
  1381     0600  00B2               	movwf	utoa@d+1
  1382     0601  0870               	movf	?___lwdiv,w
  1383     0602  00B1               	movwf	utoa@d
  1384     0603                     l1140:
  1385                           
  1386                           ;C:\Program Files\Microchip\xc8\v3.10\pic\sources\c99\common\doprnt.c: 1024:     while (
      +                          i && (d != 0
  1387     0603  1283               	bcf	3,5	;RP0=0, select bank0
  1388     0604  0836               	movf	utoa@i,w
  1389     0605  0437               	iorwf	utoa@i+1,w
  1390     0606  1903               	btfsc	3,2
  1391     0607  2E09               	goto	u791
  1392     0608  2E0A               	goto	u790
  1393     0609                     u791:
  1394     0609  2E15               	goto	l1146
  1395     060A                     u790:
  1396     060A                     l1142:
  1397     060A  0831               	movf	utoa@d,w
  1398     060B  0432               	iorwf	utoa@d+1,w
  1399     060C  1D03               	btfss	3,2
  1400     060D  2E0F               	goto	u801
  1401     060E  2E10               	goto	u800
  1402     060F                     u801:
  1403     060F  2DCD               	goto	l1130
  1404     0610                     u800:
  1405     0610                     l1144:
  1406     0610  0835               	movf	utoa@p,w
  1407     0611  1D03               	btfss	3,2
  1408     0612  2E14               	goto	u811
  1409     0613  2E15               	goto	u810
  1410     0614                     u811:
  1411     0614  2DCD               	goto	l1130
  1412     0615                     u810:
  1413     0615                     l1146:
  1414                           
  1415                           ;C:\Program Files\Microchip\xc8\v3.10\pic\sources\c99\common\doprnt.c: 1046:     return 
      +                          (void) pad(fp, &dbuf[i], w);
  1416     0615  082F               	movf	utoa@fp,w
  1417     0616  00A8               	movwf	pad@fp
  1418     0617  0830               	movf	utoa@fp+1,w
  1419     0618  00A9               	movwf	pad@fp+1
  1420     0619  0836               	movf	utoa@i,w
  1421     061A  3EA5               	addlw	(low (_dbuf| 0))& (0+255)
  1422     061B  00AA               	movwf	pad@buf
  1423     061C  0834               	movf	utoa@w+1,w
  1424     061D  00AC               	movwf	pad@p+1
  1425     061E  0833               	movf	utoa@w,w
  1426     061F  00AB               	movwf	pad@p
  1427     0620  120A  118A  24F8  120A  118A  	fcall	_pad
  1428     0625                     l648:
  1429     0625  0008               	return
  1430     0626                     __end_of_utoa:
  1431                           
  1432                           	psect	text5
  1433     04F8                     __ptext5:	
  1434 ;; *************** function _pad *****************
  1435 ;; Defined at:
  1436 ;;		line 193 in file "C:\Program Files\Microchip\xc8\v3.10\pic\sources\c99\common\doprnt.c"
  1437 ;; Parameters:    Size  Location     Type
  1438 ;;  fp              2    8[BANK0 ] PTR struct _IO_FILE
  1439 ;;		 -> sprintf@f(11), 
  1440 ;;  buf             1   10[BANK0 ] PTR unsigned char 
  1441 ;;		 -> dbuf(32), 
  1442 ;;  p               2   11[BANK0 ] int 
  1443 ;; Auto vars:     Size  Location     Type
  1444 ;;  i               2   13[BANK0 ] int 
  1445 ;; Return value:  Size  Location     Type
  1446 ;;                  1    wreg      void 
  1447 ;; Registers used:
  1448 ;;		wreg, fsr0l, fsr0h, status,2, status,0, pclath, cstack
  1449 ;; Tracked objects:
  1450 ;;		On entry : 0/0
  1451 ;;		On exit  : 0/0
  1452 ;;		Unchanged: 0/0
  1453 ;; Data sizes:     COMMON   BANK0   BANK1   BANK3   BANK2
  1454 ;;      Params:         0       5       0       0       0
  1455 ;;      Locals:         0       2       0       0       0
  1456 ;;      Temps:          1       0       0       0       0
  1457 ;;      Totals:         1       7       0       0       0
  1458 ;;Total ram usage:        8 bytes
  1459 ;; Hardware stack levels used: 1
  1460 ;; Hardware stack levels required when called: 2
  1461 ;; This function calls:
  1462 ;;		_fputc
  1463 ;;		_fputs
  1464 ;; This function is called by:
  1465 ;;		_utoa
  1466 ;; This function uses a non-reentrant model
  1467 ;;
  1468                           
  1469     04F8                     _pad:	
  1470                           ;psect for function _pad
  1471                           
  1472     04F8                     l1108:	
  1473                           ;incstack = 0
  1474                           ; Regs used in _pad: [wreg-fsr0h+status,2+status,0+pclath+cstack]
  1475                           
  1476                           
  1477                           ;C:\Program Files\Microchip\xc8\v3.10\pic\sources\c99\common\doprnt.c: 193: static void 
      +                          pad(FILE *fp, char *buf, int p);C:\Program Files\Microchip\xc8\v3.10\pic\sources\c99\com
      +                          mon\doprnt.c: 194: {;C:\Program Files\Microchip\xc8\v3.10\pic\sources\c99\common\doprnt.
      +                          c: 195:     int i;;C:\Program Files\Microchip\xc8\v3.10\pic\sources\c99\common\doprnt.c:
      +                           199:     if (flags & (1 << 0)) {
  1478     04F8  1683               	bsf	3,5	;RP0=1, select bank1
  1479     04F9  1303               	bcf	3,6	;RP1=0, select bank1
  1480     04FA  1C24               	btfss	_flags^(0+128),0
  1481     04FB  2CFD               	goto	u751
  1482     04FC  2CFE               	goto	u750
  1483     04FD                     u751:
  1484     04FD  2D0B               	goto	l1112
  1485     04FE                     u750:
  1486     04FE                     l1110:
  1487                           
  1488                           ;C:\Program Files\Microchip\xc8\v3.10\pic\sources\c99\common\doprnt.c: 200:         fput
      +                          s((const char *)buf, fp);
  1489     04FE  1283               	bcf	3,5	;RP0=0, select bank0
  1490     04FF  1303               	bcf	3,6	;RP1=0, select bank0
  1491     0500  082A               	movf	pad@buf,w
  1492     0501  00A0               	movwf	fputs@s
  1493     0502  0828               	movf	pad@fp,w
  1494     0503  00A1               	movwf	fputs@fp
  1495     0504  0829               	movf	pad@fp+1,w
  1496     0505  00A2               	movwf	fputs@fp+1
  1497     0506  120A  118A  238A  120A  118A  	fcall	_fputs
  1498     050B                     l1112:
  1499                           
  1500                           ;C:\Program Files\Microchip\xc8\v3.10\pic\sources\c99\common\doprnt.c: 205:  if (p < 0) 
      +                          {
  1501     050B  1283               	bcf	3,5	;RP0=0, select bank0
  1502     050C  1303               	bcf	3,6	;RP1=0, select bank0
  1503     050D  1FAC               	btfss	pad@p+1,7
  1504     050E  2D10               	goto	u761
  1505     050F  2D11               	goto	u760
  1506     0510                     u761:
  1507     0510  2D13               	goto	l635
  1508     0511                     u760:
  1509     0511                     l1114:
  1510                           
  1511                           ;C:\Program Files\Microchip\xc8\v3.10\pic\sources\c99\common\doprnt.c: 206:   p = 0;
  1512     0511  01AB               	clrf	pad@p
  1513     0512  01AC               	clrf	pad@p+1
  1514     0513                     l635:	
  1515                           ;C:\Program Files\Microchip\xc8\v3.10\pic\sources\c99\common\doprnt.c: 207:  }
  1516                           
  1517                           
  1518                           ;C:\Program Files\Microchip\xc8\v3.10\pic\sources\c99\common\doprnt.c: 208:     i = 0;
  1519     0513  01AD               	clrf	pad@i
  1520     0514  01AE               	clrf	pad@i+1
  1521                           
  1522                           ;C:\Program Files\Microchip\xc8\v3.10\pic\sources\c99\common\doprnt.c: 209:     while (i
      +                           < p) {
  1523     0515  2D2D               	goto	l1120
  1524     0516                     l1116:
  1525                           
  1526                           ;C:\Program Files\Microchip\xc8\v3.10\pic\sources\c99\common\doprnt.c: 210:         fput
      +                          c(' ', fp);
  1527     0516  3020               	movlw	32
  1528     0517  00F0               	movwf	fputc@c
  1529     0518  3000               	movlw	0
  1530     0519  00F1               	movwf	fputc@c+1
  1531     051A  1283               	bcf	3,5	;RP0=0, select bank0
  1532     051B  1303               	bcf	3,6	;RP1=0, select bank0
  1533     051C  0828               	movf	pad@fp,w
  1534     051D  00F2               	movwf	fputc@fp
  1535     051E  0829               	movf	pad@fp+1,w
  1536     051F  00F3               	movwf	fputc@fp+1
  1537     0520  120A  118A  26BE  120A  118A  	fcall	_fputc
  1538     0525                     l1118:
  1539                           
  1540                           ;C:\Program Files\Microchip\xc8\v3.10\pic\sources\c99\common\doprnt.c: 211:         ++i;
  1541     0525  3001               	movlw	1
  1542     0526  1283               	bcf	3,5	;RP0=0, select bank0
  1543     0527  1303               	bcf	3,6	;RP1=0, select bank0
  1544     0528  07AD               	addwf	pad@i,f
  1545     0529  1803               	skipnc
  1546     052A  0AAE               	incf	pad@i+1,f
  1547     052B  3000               	movlw	0
  1548     052C  07AE               	addwf	pad@i+1,f
  1549     052D                     l1120:
  1550                           
  1551                           ;C:\Program Files\Microchip\xc8\v3.10\pic\sources\c99\common\doprnt.c: 209:     while (i
      +                           < p) {
  1552     052D  082E               	movf	pad@i+1,w
  1553     052E  3A80               	xorlw	128
  1554     052F  00FD               	movwf	??_pad
  1555     0530  082C               	movf	pad@p+1,w
  1556     0531  3A80               	xorlw	128
  1557     0532  027D               	subwf	??_pad,w
  1558     0533  1D03               	skipz
  1559     0534  2D37               	goto	u775
  1560     0535  082B               	movf	pad@p,w
  1561     0536  022D               	subwf	pad@i,w
  1562     0537                     u775:
  1563     0537  1C03               	skipc
  1564     0538  2D3A               	goto	u771
  1565     0539  2D3B               	goto	u770
  1566     053A                     u771:
  1567     053A  2D16               	goto	l1116
  1568     053B                     u770:
  1569     053B                     l638:
  1570                           
  1571                           ;C:\Program Files\Microchip\xc8\v3.10\pic\sources\c99\common\doprnt.c: 216:     if (!(fl
      +                          ags & (1 << 0))) {
  1572     053B  1683               	bsf	3,5	;RP0=1, select bank1
  1573     053C  1303               	bcf	3,6	;RP1=0, select bank1
  1574     053D  1824               	btfsc	_flags^(0+128),0
  1575     053E  2D40               	goto	u781
  1576     053F  2D41               	goto	u780
  1577     0540                     u781:
  1578     0540  2D4E               	goto	l640
  1579     0541                     u780:
  1580     0541                     l1122:
  1581                           
  1582                           ;C:\Program Files\Microchip\xc8\v3.10\pic\sources\c99\common\doprnt.c: 218:         fput
      +                          s((const char *)buf, fp);
  1583     0541  1283               	bcf	3,5	;RP0=0, select bank0
  1584     0542  1303               	bcf	3,6	;RP1=0, select bank0
  1585     0543  082A               	movf	pad@buf,w
  1586     0544  00A0               	movwf	fputs@s
  1587     0545  0828               	movf	pad@fp,w
  1588     0546  00A1               	movwf	fputs@fp
  1589     0547  0829               	movf	pad@fp+1,w
  1590     0548  00A2               	movwf	fputs@fp+1
  1591     0549  120A  118A  238A  120A  118A  	fcall	_fputs
  1592     054E                     l640:
  1593     054E  0008               	return
  1594     054F                     __end_of_pad:
  1595                           
  1596                           	psect	text6
  1597     038A                     __ptext6:	
  1598 ;; *************** function _fputs *****************
  1599 ;; Defined at:
  1600 ;;		line 8 in file "C:\Program Files\Microchip\xc8\v3.10\pic\sources\c99\common\nf_fputs.c"
  1601 ;; Parameters:    Size  Location     Type
  1602 ;;  s               1    0[BANK0 ] PTR const unsigned char 
  1603 ;;		 -> dbuf(32), 
  1604 ;;  fp              2    1[BANK0 ] PTR struct _IO_FILE
  1605 ;;		 -> sprintf@f(11), 
  1606 ;; Auto vars:     Size  Location     Type
  1607 ;;  i               2    6[BANK0 ] int 
  1608 ;;  c               1    5[BANK0 ] unsigned char 
  1609 ;; Return value:  Size  Location     Type
  1610 ;;                  2    0[BANK0 ] int 
  1611 ;; Registers used:
  1612 ;;		wreg, fsr0l, fsr0h, status,2, status,0, pclath, cstack
  1613 ;; Tracked objects:
  1614 ;;		On entry : 0/0
  1615 ;;		On exit  : 0/0
  1616 ;;		Unchanged: 0/0
  1617 ;; Data sizes:     COMMON   BANK0   BANK1   BANK3   BANK2
  1618 ;;      Params:         0       3       0       0       0
  1619 ;;      Locals:         0       3       0       0       0
  1620 ;;      Temps:          0       2       0       0       0
  1621 ;;      Totals:         0       8       0       0       0
  1622 ;;Total ram usage:        8 bytes
  1623 ;; Hardware stack levels used: 1
  1624 ;; Hardware stack levels required when called: 1
  1625 ;; This function calls:
  1626 ;;		_fputc
  1627 ;; This function is called by:
  1628 ;;		_pad
  1629 ;; This function uses a non-reentrant model
  1630 ;;
  1631                           
  1632     038A                     _fputs:	
  1633                           ;psect for function _fputs
  1634                           
  1635     038A                     l1038:	
  1636                           ;incstack = 0
  1637                           ; Regs used in _fputs: [wreg-fsr0h+status,2+status,0+pclath+cstack]
  1638                           
  1639     038A  1283               	bcf	3,5	;RP0=0, select bank0
  1640     038B  1303               	bcf	3,6	;RP1=0, select bank0
  1641     038C  01A6               	clrf	fputs@i
  1642     038D  01A7               	clrf	fputs@i+1
  1643     038E  2BA7               	goto	l1044
  1644     038F                     l1040:
  1645     038F  0825               	movf	fputs@c,w
  1646     0390  00A3               	movwf	??_fputs
  1647     0391  01A4               	clrf	??_fputs+1
  1648     0392  0823               	movf	??_fputs,w
  1649     0393  00F0               	movwf	fputc@c
  1650     0394  0824               	movf	??_fputs+1,w
  1651     0395  00F1               	movwf	fputc@c+1
  1652     0396  0821               	movf	fputs@fp,w
  1653     0397  00F2               	movwf	fputc@fp
  1654     0398  0822               	movf	fputs@fp+1,w
  1655     0399  00F3               	movwf	fputc@fp+1
  1656     039A  120A  118A  26BE  120A  118A  	fcall	_fputc
  1657     039F                     l1042:
  1658     039F  3001               	movlw	1
  1659     03A0  1283               	bcf	3,5	;RP0=0, select bank0
  1660     03A1  1303               	bcf	3,6	;RP1=0, select bank0
  1661     03A2  07A6               	addwf	fputs@i,f
  1662     03A3  1803               	skipnc
  1663     03A4  0AA7               	incf	fputs@i+1,f
  1664     03A5  3000               	movlw	0
  1665     03A6  07A7               	addwf	fputs@i+1,f
  1666     03A7                     l1044:
  1667     03A7  0826               	movf	fputs@i,w
  1668     03A8  0720               	addwf	fputs@s,w
  1669     03A9  00A3               	movwf	??_fputs
  1670     03AA  0823               	movf	??_fputs,w
  1671     03AB  0084               	movwf	4
  1672     03AC  1383               	bcf	3,7	;select IRP bank0
  1673     03AD  0800               	movf	0,w
  1674     03AE  00A5               	movwf	fputs@c
  1675     03AF  0825               	movf	fputs@c,w
  1676     03B0  1D03               	btfss	3,2
  1677     03B1  2BB3               	goto	u571
  1678     03B2  2BB4               	goto	u570
  1679     03B3                     u571:
  1680     03B3  2B8F               	goto	l1040
  1681     03B4                     u570:
  1682     03B4                     l693:
  1683     03B4  0008               	return
  1684     03B5                     __end_of_fputs:
  1685                           
  1686                           	psect	text7
  1687     06BE                     __ptext7:	
  1688 ;; *************** function _fputc *****************
  1689 ;; Defined at:
  1690 ;;		line 8 in file "C:\Program Files\Microchip\xc8\v3.10\pic\sources\c99\common\nf_fputc.c"
  1691 ;; Parameters:    Size  Location     Type
  1692 ;;  c               2    0[COMMON] int 
  1693 ;;  fp              2    2[COMMON] PTR struct _IO_FILE
  1694 ;;		 -> sprintf@f(11), 
  1695 ;; Auto vars:     Size  Location     Type
  1696 ;;		None
  1697 ;; Return value:  Size  Location     Type
  1698 ;;                  2    0[COMMON] int 
  1699 ;; Registers used:
  1700 ;;		wreg, fsr0l, fsr0h, status,2, status,0, pclath, cstack
  1701 ;; Tracked objects:
  1702 ;;		On entry : 0/0
  1703 ;;		On exit  : 0/0
  1704 ;;		Unchanged: 0/0
  1705 ;; Data sizes:     COMMON   BANK0   BANK1   BANK3   BANK2
  1706 ;;      Params:         4       0       0       0       0
  1707 ;;      Locals:         0       0       0       0       0
  1708 ;;      Temps:          9       0       0       0       0
  1709 ;;      Totals:        13       0       0       0       0
  1710 ;;Total ram usage:       13 bytes
  1711 ;; Hardware stack levels used: 1
  1712 ;; This function calls:
  1713 ;;		_putch
  1714 ;; This function is called by:
  1715 ;;		_pad
  1716 ;;		_vfpfcnvrt
  1717 ;;		_fputs
  1718 ;; This function uses a non-reentrant model
  1719 ;;
  1720                           
  1721     06BE                     _fputc:	
  1722                           ;psect for function _fputc
  1723                           
  1724     06BE                     l1024:	
  1725                           ;incstack = 0
  1726                           ; Regs used in _fputc: [wreg-fsr0h+status,2+status,0+pclath+cstack]
  1727                           
  1728     06BE  0872               	movf	fputc@fp,w
  1729     06BF  0473               	iorwf	fputc@fp+1,w
  1730     06C0  1903               	btfsc	3,2
  1731     06C1  2EC3               	goto	u521
  1732     06C2  2EC4               	goto	u520
  1733     06C3                     u521:
  1734     06C3  2ECA               	goto	l1028
  1735     06C4                     u520:
  1736     06C4                     l1026:
  1737     06C4  0872               	movf	fputc@fp,w
  1738     06C5  0473               	iorwf	fputc@fp+1,w
  1739     06C6  1D03               	btfss	3,2
  1740     06C7  2EC9               	goto	u531
  1741     06C8  2ECA               	goto	u530
  1742     06C9                     u531:
  1743     06C9  2ED1               	goto	l1030
  1744     06CA                     u530:
  1745     06CA                     l1028:
  1746     06CA  0870               	movf	fputc@c,w
  1747     06CB  120A  118A  229C  120A  118A  	fcall	_putch
  1748     06D0  2F57               	goto	l685
  1749     06D1                     l1030:
  1750     06D1  0872               	movf	fputc@fp,w
  1751     06D2  3E09               	addlw	9
  1752     06D3  00F4               	movwf	??_fputc
  1753     06D4  0873               	movf	fputc@fp+1,w
  1754     06D5  1803               	skipnc
  1755     06D6  3E01               	addlw	1
  1756     06D7  3E00               	addlw	0
  1757     06D8  00F5               	movwf	??_fputc+1
  1758     06D9  0874               	movf	??_fputc,w
  1759     06DA  0084               	movwf	4
  1760     06DB  1783               	bsf	3,7
  1761     06DC  1C75               	btfss	??_fputc+1,0
  1762     06DD  1383               	bcf	3,7
  1763     06DE  0800               	movf	0,w
  1764     06DF  00F6               	movwf	??_fputc+2
  1765     06E0  0A84               	incf	4,f
  1766     06E1  0800               	movf	0,w
  1767     06E2  00F7               	movwf	??_fputc+3
  1768     06E3  0876               	movf	??_fputc+2,w
  1769     06E4  0477               	iorwf	??_fputc+3,w
  1770     06E5  1903               	btfsc	3,2
  1771     06E6  2EE8               	goto	u541
  1772     06E7  2EE9               	goto	u540
  1773     06E8                     u541:
  1774     06E8  2F1B               	goto	l1034
  1775     06E9                     u540:
  1776     06E9                     l1032:
  1777     06E9  0872               	movf	fputc@fp,w
  1778     06EA  3E09               	addlw	9
  1779     06EB  00F4               	movwf	??_fputc
  1780     06EC  0873               	movf	fputc@fp+1,w
  1781     06ED  1803               	skipnc
  1782     06EE  3E01               	addlw	1
  1783     06EF  3E00               	addlw	0
  1784     06F0  00F5               	movwf	??_fputc+1
  1785     06F1  0874               	movf	??_fputc,w
  1786     06F2  0084               	movwf	4
  1787     06F3  1783               	bsf	3,7
  1788     06F4  1C75               	btfss	??_fputc+1,0
  1789     06F5  1383               	bcf	3,7
  1790     06F6  0800               	movf	0,w
  1791     06F7  00F6               	movwf	??_fputc+2
  1792     06F8  0A84               	incf	4,f
  1793     06F9  0800               	movf	0,w
  1794     06FA  00F7               	movwf	??_fputc+3
  1795     06FB  0872               	movf	fputc@fp,w
  1796     06FC  3E02               	addlw	2
  1797     06FD  00F8               	movwf	??_fputc+4
  1798     06FE  0873               	movf	fputc@fp+1,w
  1799     06FF  1803               	skipnc
  1800     0700  3E01               	addlw	1
  1801     0701  3E00               	addlw	0
  1802     0702  00F9               	movwf	??_fputc+5
  1803     0703  0878               	movf	??_fputc+4,w
  1804     0704  0084               	movwf	4
  1805     0705  1783               	bsf	3,7
  1806     0706  1C79               	btfss	??_fputc+5,0
  1807     0707  1383               	bcf	3,7
  1808     0708  0800               	movf	0,w
  1809     0709  00FA               	movwf	??_fputc+6
  1810     070A  0A84               	incf	4,f
  1811     070B  0800               	movf	0,w
  1812     070C  00FB               	movwf	??_fputc+7
  1813     070D  087B               	movf	??_fputc+7,w
  1814     070E  3A80               	xorlw	128
  1815     070F  00FC               	movwf	??_fputc+8
  1816     0710  0877               	movf	??_fputc+3,w
  1817     0711  3A80               	xorlw	128
  1818     0712  027C               	subwf	??_fputc+8,w
  1819     0713  1D03               	skipz
  1820     0714  2F17               	goto	u555
  1821     0715  0876               	movf	??_fputc+2,w
  1822     0716  027A               	subwf	??_fputc+6,w
  1823     0717                     u555:
  1824     0717  1803               	skipnc
  1825     0718  2F1A               	goto	u551
  1826     0719  2F1B               	goto	u550
  1827     071A                     u551:
  1828     071A  2F57               	goto	l685
  1829     071B                     u550:
  1830     071B                     l1034:
  1831     071B  0872               	movf	fputc@fp,w
  1832     071C  0084               	movwf	4
  1833     071D  1783               	bsf	3,7
  1834     071E  1C73               	btfss	fputc@fp+1,0
  1835     071F  1383               	bcf	3,7
  1836     0720  0800               	movf	0,w
  1837     0721  00F4               	movwf	??_fputc
  1838     0722  0A84               	incf	4,f
  1839     0723  0800               	movf	0,w
  1840     0724  00F5               	movwf	??_fputc+1
  1841     0725  0872               	movf	fputc@fp,w
  1842     0726  3E02               	addlw	2
  1843     0727  00F6               	movwf	??_fputc+2
  1844     0728  0873               	movf	fputc@fp+1,w
  1845     0729  1803               	skipnc
  1846     072A  3E01               	addlw	1
  1847     072B  3E00               	addlw	0
  1848     072C  00F7               	movwf	??_fputc+3
  1849     072D  0876               	movf	??_fputc+2,w
  1850     072E  0084               	movwf	4
  1851     072F  1783               	bsf	3,7
  1852     0730  1C77               	btfss	??_fputc+3,0
  1853     0731  1383               	bcf	3,7
  1854     0732  0800               	movf	0,w
  1855     0733  0774               	addwf	??_fputc,w
  1856     0734  00F9               	movwf	??_fputc+5
  1857     0735  0875               	movf	??_fputc+1,w
  1858     0736  00F8               	movwf	??_fputc+4
  1859     0737  1803               	skipnc
  1860     0738  0AF8               	incf	??_fputc+4,f
  1861     0739  1F80               	btfss	0,7
  1862     073A  2F3C               	goto	u560
  1863     073B  03F8               	decf	??_fputc+4,f
  1864     073C                     u560:
  1865     073C  0878               	movf	??_fputc+4,w
  1866     073D  00FA               	movwf	??_fputc+6
  1867     073E  0879               	movf	??_fputc+5,w
  1868     073F  0084               	movwf	4
  1869     0740  1783               	bsf	3,7
  1870     0741  1C7A               	btfss	??_fputc+6,0
  1871     0742  1383               	bcf	3,7
  1872     0743  0870               	movf	fputc@c,w
  1873     0744  0080               	movwf	0
  1874     0745  0872               	movf	fputc@fp,w
  1875     0746  3E02               	addlw	2
  1876     0747  00F4               	movwf	??_fputc
  1877     0748  0873               	movf	fputc@fp+1,w
  1878     0749  1803               	skipnc
  1879     074A  3E01               	addlw	1
  1880     074B  3E00               	addlw	0
  1881     074C  00F5               	movwf	??_fputc+1
  1882     074D  0874               	movf	??_fputc,w
  1883     074E  0084               	movwf	4
  1884     074F  1783               	bsf	3,7
  1885     0750  1C75               	btfss	??_fputc+1,0
  1886     0751  1383               	bcf	3,7
  1887     0752  3001               	movlw	1
  1888     0753  0780               	addwf	0,f
  1889     0754  0A84               	incf	4,f
  1890     0755  1803               	skipnc
  1891     0756  0A80               	incf	0,f
  1892     0757                     l685:
  1893     0757  0008               	return
  1894     0758                     __end_of_fputc:
  1895                           
  1896                           	psect	text8
  1897     029C                     __ptext8:	
  1898 ;; *************** function _putch *****************
  1899 ;; Defined at:
  1900 ;;		line 7 in file "C:\Program Files\Microchip\xc8\v3.10\pic\sources\c99\common\putch.c"
  1901 ;; Parameters:    Size  Location     Type
  1902 ;;  c               1    wreg     unsigned char 
  1903 ;; Auto vars:     Size  Location     Type
  1904 ;;  c               1    0[COMMON] unsigned char 
  1905 ;; Return value:  Size  Location     Type
  1906 ;;                  1    wreg      void 
  1907 ;; Registers used:
  1908 ;;		wreg
  1909 ;; Tracked objects:
  1910 ;;		On entry : 0/0
  1911 ;;		On exit  : 0/0
  1912 ;;		Unchanged: 0/0
  1913 ;; Data sizes:     COMMON   BANK0   BANK1   BANK3   BANK2
  1914 ;;      Params:         0       0       0       0       0
  1915 ;;      Locals:         0       0       0       0       0
  1916 ;;      Temps:          0       0       0       0       0
  1917 ;;      Totals:         0       0       0       0       0
  1918 ;;Total ram usage:        0 bytes
  1919 ;; Hardware stack levels used: 1
  1920 ;; This function calls:
  1921 ;;		Nothing
  1922 ;; This function is called by:
  1923 ;;		_fputc
  1924 ;; This function uses a non-reentrant model
  1925 ;;
  1926                           
  1927     029C                     _putch:	
  1928                           ;psect for function _putch
  1929                           
  1930     029C                     l696:	
  1931                           ;incstack = 0
  1932                           ; Regs used in _putch: [wreg]
  1933                           
  1934     029C  0008               	return
  1935     029D                     __end_of_putch:
  1936                           
  1937                           	psect	text9
  1938     03E5                     __ptext9:	
  1939 ;; *************** function ___lwmod *****************
  1940 ;; Defined at:
  1941 ;;		line 5 in file "C:\Program Files\Microchip\xc8\v3.10\pic\sources\c99\common\lwmod.c"
  1942 ;; Parameters:    Size  Location     Type
  1943 ;;  divisor         2    0[COMMON] unsigned int 
  1944 ;;  dividend        2    2[COMMON] unsigned int 
  1945 ;; Auto vars:     Size  Location     Type
  1946 ;;  counter         1    4[COMMON] unsigned char 
  1947 ;; Return value:  Size  Location     Type
  1948 ;;                  2    0[COMMON] unsigned int 
  1949 ;; Registers used:
  1950 ;;		wreg, status,2, status,0
  1951 ;; Tracked objects:
  1952 ;;		On entry : 0/0
  1953 ;;		On exit  : 0/0
  1954 ;;		Unchanged: 0/0
  1955 ;; Data sizes:     COMMON   BANK0   BANK1   BANK3   BANK2
  1956 ;;      Params:         4       0       0       0       0
  1957 ;;      Locals:         1       0       0       0       0
  1958 ;;      Temps:          0       0       0       0       0
  1959 ;;      Totals:         5       0       0       0       0
  1960 ;;Total ram usage:        5 bytes
  1961 ;; Hardware stack levels used: 1
  1962 ;; This function calls:
  1963 ;;		Nothing
  1964 ;; This function is called by:
  1965 ;;		_utoa
  1966 ;; This function uses a non-reentrant model
  1967 ;;
  1968                           
  1969     03E5                     ___lwmod:	
  1970                           ;psect for function ___lwmod
  1971                           
  1972     03E5                     l1086:	
  1973                           ;incstack = 0
  1974                           ; Regs used in ___lwmod: [wreg+status,2+status,0]
  1975                           
  1976     03E5  0870               	movf	___lwmod@divisor,w
  1977     03E6  0471               	iorwf	___lwmod@divisor+1,w
  1978     03E7  1903               	btfsc	3,2
  1979     03E8  2BEA               	goto	u691
  1980     03E9  2BEB               	goto	u690
  1981     03EA                     u691:
  1982     03EA  2C18               	goto	l1104
  1983     03EB                     u690:
  1984     03EB                     l1088:
  1985     03EB  3001               	movlw	1
  1986     03EC  00F4               	movwf	___lwmod@counter
  1987     03ED  2BF7               	goto	l1094
  1988     03EE                     l1090:
  1989     03EE  3001               	movlw	1
  1990     03EF                     u705:
  1991     03EF  1003               	clrc
  1992     03F0  0DF0               	rlf	___lwmod@divisor,f
  1993     03F1  0DF1               	rlf	___lwmod@divisor+1,f
  1994     03F2  3EFF               	addlw	-1
  1995     03F3  1D03               	skipz
  1996     03F4  2BEF               	goto	u705
  1997     03F5                     l1092:
  1998     03F5  3001               	movlw	1
  1999     03F6  07F4               	addwf	___lwmod@counter,f
  2000     03F7                     l1094:
  2001     03F7  1FF1               	btfss	___lwmod@divisor+1,7
  2002     03F8  2BFA               	goto	u711
  2003     03F9  2BFB               	goto	u710
  2004     03FA                     u711:
  2005     03FA  2BEE               	goto	l1090
  2006     03FB                     u710:
  2007     03FB                     l1096:
  2008     03FB  0871               	movf	___lwmod@divisor+1,w
  2009     03FC  0273               	subwf	___lwmod@dividend+1,w
  2010     03FD  1D03               	skipz
  2011     03FE  2C01               	goto	u725
  2012     03FF  0870               	movf	___lwmod@divisor,w
  2013     0400  0272               	subwf	___lwmod@dividend,w
  2014     0401                     u725:
  2015     0401  1C03               	skipc
  2016     0402  2C04               	goto	u721
  2017     0403  2C05               	goto	u720
  2018     0404                     u721:
  2019     0404  2C0B               	goto	l1100
  2020     0405                     u720:
  2021     0405                     l1098:
  2022     0405  0870               	movf	___lwmod@divisor,w
  2023     0406  02F2               	subwf	___lwmod@dividend,f
  2024     0407  0871               	movf	___lwmod@divisor+1,w
  2025     0408  1C03               	skipc
  2026     0409  03F3               	decf	___lwmod@dividend+1,f
  2027     040A  02F3               	subwf	___lwmod@dividend+1,f
  2028     040B                     l1100:
  2029     040B  3001               	movlw	1
  2030     040C                     u735:
  2031     040C  1003               	clrc
  2032     040D  0CF1               	rrf	___lwmod@divisor+1,f
  2033     040E  0CF0               	rrf	___lwmod@divisor,f
  2034     040F  3EFF               	addlw	-1
  2035     0410  1D03               	skipz
  2036     0411  2C0C               	goto	u735
  2037     0412                     l1102:
  2038     0412  3001               	movlw	1
  2039     0413  02F4               	subwf	___lwmod@counter,f
  2040     0414  1D03               	btfss	3,2
  2041     0415  2C17               	goto	u741
  2042     0416  2C18               	goto	u740
  2043     0417                     u741:
  2044     0417  2BFB               	goto	l1096
  2045     0418                     u740:
  2046     0418                     l1104:
  2047     0418  0873               	movf	___lwmod@dividend+1,w
  2048     0419  00F1               	movwf	?___lwmod+1
  2049     041A  0872               	movf	___lwmod@dividend,w
  2050     041B  00F0               	movwf	?___lwmod
  2051     041C                     l444:
  2052     041C  0008               	return
  2053     041D                     __end_of___lwmod:
  2054                           
  2055                           	psect	text10
  2056     041D                     __ptext10:	
  2057 ;; *************** function ___lwdiv *****************
  2058 ;; Defined at:
  2059 ;;		line 5 in file "C:\Program Files\Microchip\xc8\v3.10\pic\sources\c99\common\lwdiv.c"
  2060 ;; Parameters:    Size  Location     Type
  2061 ;;  divisor         2    0[COMMON] unsigned int 
  2062 ;;  dividend        2    2[COMMON] unsigned int 
  2063 ;; Auto vars:     Size  Location     Type
  2064 ;;  quotient        2    4[COMMON] unsigned int 
  2065 ;;  counter         1    6[COMMON] unsigned char 
  2066 ;; Return value:  Size  Location     Type
  2067 ;;                  2    0[COMMON] unsigned int 
  2068 ;; Registers used:
  2069 ;;		wreg, status,2, status,0
  2070 ;; Tracked objects:
  2071 ;;		On entry : 0/0
  2072 ;;		On exit  : 0/0
  2073 ;;		Unchanged: 0/0
  2074 ;; Data sizes:     COMMON   BANK0   BANK1   BANK3   BANK2
  2075 ;;      Params:         4       0       0       0       0
  2076 ;;      Locals:         3       0       0       0       0
  2077 ;;      Temps:          0       0       0       0       0
  2078 ;;      Totals:         7       0       0       0       0
  2079 ;;Total ram usage:        7 bytes
  2080 ;; Hardware stack levels used: 1
  2081 ;; This function calls:
  2082 ;;		Nothing
  2083 ;; This function is called by:
  2084 ;;		_utoa
  2085 ;; This function uses a non-reentrant model
  2086 ;;
  2087                           
  2088     041D                     ___lwdiv:	
  2089                           ;psect for function ___lwdiv
  2090                           
  2091     041D                     l1060:	
  2092                           ;incstack = 0
  2093                           ; Regs used in ___lwdiv: [wreg+status,2+status,0]
  2094                           
  2095     041D  01F4               	clrf	___lwdiv@quotient
  2096     041E  01F5               	clrf	___lwdiv@quotient+1
  2097     041F                     l1062:
  2098     041F  0870               	movf	___lwdiv@divisor,w
  2099     0420  0471               	iorwf	___lwdiv@divisor+1,w
  2100     0421  1903               	btfsc	3,2
  2101     0422  2C24               	goto	u621
  2102     0423  2C25               	goto	u620
  2103     0424                     u621:
  2104     0424  2C5A               	goto	l1082
  2105     0425                     u620:
  2106     0425                     l1064:
  2107     0425  3001               	movlw	1
  2108     0426  00F6               	movwf	___lwdiv@counter
  2109     0427  2C31               	goto	l1070
  2110     0428                     l1066:
  2111     0428  3001               	movlw	1
  2112     0429                     u635:
  2113     0429  1003               	clrc
  2114     042A  0DF0               	rlf	___lwdiv@divisor,f
  2115     042B  0DF1               	rlf	___lwdiv@divisor+1,f
  2116     042C  3EFF               	addlw	-1
  2117     042D  1D03               	skipz
  2118     042E  2C29               	goto	u635
  2119     042F                     l1068:
  2120     042F  3001               	movlw	1
  2121     0430  07F6               	addwf	___lwdiv@counter,f
  2122     0431                     l1070:
  2123     0431  1FF1               	btfss	___lwdiv@divisor+1,7
  2124     0432  2C34               	goto	u641
  2125     0433  2C35               	goto	u640
  2126     0434                     u641:
  2127     0434  2C28               	goto	l1066
  2128     0435                     u640:
  2129     0435                     l1072:
  2130     0435  3001               	movlw	1
  2131     0436                     u655:
  2132     0436  1003               	clrc
  2133     0437  0DF4               	rlf	___lwdiv@quotient,f
  2134     0438  0DF5               	rlf	___lwdiv@quotient+1,f
  2135     0439  3EFF               	addlw	-1
  2136     043A  1D03               	skipz
  2137     043B  2C36               	goto	u655
  2138     043C  0871               	movf	___lwdiv@divisor+1,w
  2139     043D  0273               	subwf	___lwdiv@dividend+1,w
  2140     043E  1D03               	skipz
  2141     043F  2C42               	goto	u665
  2142     0440  0870               	movf	___lwdiv@divisor,w
  2143     0441  0272               	subwf	___lwdiv@dividend,w
  2144     0442                     u665:
  2145     0442  1C03               	skipc
  2146     0443  2C45               	goto	u661
  2147     0444  2C46               	goto	u660
  2148     0445                     u661:
  2149     0445  2C4D               	goto	l1078
  2150     0446                     u660:
  2151     0446                     l1074:
  2152     0446  0870               	movf	___lwdiv@divisor,w
  2153     0447  02F2               	subwf	___lwdiv@dividend,f
  2154     0448  0871               	movf	___lwdiv@divisor+1,w
  2155     0449  1C03               	skipc
  2156     044A  03F3               	decf	___lwdiv@dividend+1,f
  2157     044B  02F3               	subwf	___lwdiv@dividend+1,f
  2158     044C                     l1076:
  2159     044C  1474               	bsf	___lwdiv@quotient,0
  2160     044D                     l1078:
  2161     044D  3001               	movlw	1
  2162     044E                     u675:
  2163     044E  1003               	clrc
  2164     044F  0CF1               	rrf	___lwdiv@divisor+1,f
  2165     0450  0CF0               	rrf	___lwdiv@divisor,f
  2166     0451  3EFF               	addlw	-1
  2167     0452  1D03               	skipz
  2168     0453  2C4E               	goto	u675
  2169     0454                     l1080:
  2170     0454  3001               	movlw	1
  2171     0455  02F6               	subwf	___lwdiv@counter,f
  2172     0456  1D03               	btfss	3,2
  2173     0457  2C59               	goto	u681
  2174     0458  2C5A               	goto	u680
  2175     0459                     u681:
  2176     0459  2C35               	goto	l1072
  2177     045A                     u680:
  2178     045A                     l1082:
  2179     045A  0875               	movf	___lwdiv@quotient+1,w
  2180     045B  00F1               	movwf	?___lwdiv+1
  2181     045C  0874               	movf	___lwdiv@quotient,w
  2182     045D  00F0               	movwf	?___lwdiv
  2183     045E                     l434:
  2184     045E  0008               	return
  2185     045F                     __end_of___lwdiv:
  2186                           
  2187                           	psect	text11
  2188     04A5                     __ptext11:	
  2189 ;; *************** function _read_prec_or_width *****************
  2190 ;; Defined at:
  2191 ;;		line 1158 in file "C:\Program Files\Microchip\xc8\v3.10\pic\sources\c99\common\doprnt.c"
  2192 ;; Parameters:    Size  Location     Type
  2193 ;;  fmt             1    6[COMMON] PTR PTR const unsigned c
  2194 ;;		 -> vfprintf@cfmt(1), 
  2195 ;;  ap              1    7[COMMON] PTR PTR void [1]
  2196 ;;		 -> sprintf@ap(1), 
  2197 ;; Auto vars:     Size  Location     Type
  2198 ;;  c               1    9[COMMON] unsigned char 
  2199 ;;  n               2   10[COMMON] int 
  2200 ;; Return value:  Size  Location     Type
  2201 ;;                  2    6[COMMON] int 
  2202 ;; Registers used:
  2203 ;;		wreg, fsr0l, fsr0h, status,2, status,0, pclath, cstack
  2204 ;; Tracked objects:
  2205 ;;		On entry : 0/0
  2206 ;;		On exit  : 0/0
  2207 ;;		Unchanged: 0/0
  2208 ;; Data sizes:     COMMON   BANK0   BANK1   BANK3   BANK2
  2209 ;;      Params:         2       0       0       0       0
  2210 ;;      Locals:         3       0       0       0       0
  2211 ;;      Temps:          1       0       0       0       0
  2212 ;;      Totals:         6       0       0       0       0
  2213 ;;Total ram usage:        6 bytes
  2214 ;; Hardware stack levels used: 1
  2215 ;; Hardware stack levels required when called: 1
  2216 ;; This function calls:
  2217 ;;		___wmul
  2218 ;; This function is called by:
  2219 ;;		_vfpfcnvrt
  2220 ;; This function uses a non-reentrant model
  2221 ;;
  2222                           
  2223     04A5                     _read_prec_or_width:	
  2224                           ;psect for function _read_prec_or_width
  2225                           
  2226     04A5                     l1150:	
  2227                           ;incstack = 0
  2228                           ; Regs used in _read_prec_or_width: [wreg-fsr0h+status,2+status,0+pclath+cstack]
  2229                           
  2230                           
  2231                           ;C:\Program Files\Microchip\xc8\v3.10\pic\sources\c99\common\doprnt.c: 1159:     int n =
      +                           0;
  2232     04A5  01FA               	clrf	read_prec_or_width@n
  2233     04A6  01FB               	clrf	read_prec_or_width@n+1
  2234     04A7                     l1152:
  2235                           
  2236                           ;C:\Program Files\Microchip\xc8\v3.10\pic\sources\c99\common\doprnt.c: 1160:     if ((*f
      +                          mt)[0] == '*') {
  2237     04A7  0876               	movf	read_prec_or_width@fmt,w
  2238     04A8  0084               	movwf	4
  2239     04A9  1383               	bcf	3,7	;select IRP bank0
  2240     04AA  0800               	movf	0,w
  2241     04AB  0084               	movwf	4
  2242     04AC  120A  118A  2003  120A  118A  	fcall	stringdir
  2243     04B1  3A2A               	xorlw	42
  2244     04B2  1D03               	skipz
  2245     04B3  2CB5               	goto	u821
  2246     04B4  2CB6               	goto	u820
  2247     04B5                     u821:
  2248     04B5  2CE2               	goto	l1160
  2249     04B6                     u820:
  2250     04B6                     l1154:
  2251                           
  2252                           ;C:\Program Files\Microchip\xc8\v3.10\pic\sources\c99\common\doprnt.c: 1161:         ++*
      +                          fmt;
  2253     04B6  0876               	movf	read_prec_or_width@fmt,w
  2254     04B7  0084               	movwf	4
  2255     04B8  3001               	movlw	1
  2256     04B9  0780               	addwf	0,f
  2257                           
  2258                           ;C:\Program Files\Microchip\xc8\v3.10\pic\sources\c99\common\doprnt.c: 1162:         n =
      +                           (*(int *)__va_arg(*(int **)*ap, (int)0));
  2259     04BA  0877               	movf	read_prec_or_width@ap,w
  2260     04BB  0084               	movwf	4
  2261     04BC  0800               	movf	0,w
  2262     04BD  00F8               	movwf	??_read_prec_or_width
  2263     04BE  3002               	movlw	2
  2264     04BF  0780               	addwf	0,f
  2265     04C0  0878               	movf	??_read_prec_or_width,w
  2266     04C1  0084               	movwf	4
  2267     04C2  0800               	movf	0,w
  2268     04C3  00FA               	movwf	read_prec_or_width@n
  2269     04C4  0A84               	incf	4,f
  2270     04C5  0800               	movf	0,w
  2271     04C6  00FB               	movwf	read_prec_or_width@n+1
  2272                           
  2273                           ;C:\Program Files\Microchip\xc8\v3.10\pic\sources\c99\common\doprnt.c: 1163:     } else 
      +                          {
  2274     04C7  2CF3               	goto	l1162
  2275     04C8                     l1156:
  2276                           
  2277                           ;C:\Program Files\Microchip\xc8\v3.10\pic\sources\c99\common\doprnt.c: 1166:            
      +                           n = n * 10 + c;
  2278     04C8  087B               	movf	read_prec_or_width@n+1,w
  2279     04C9  00F1               	movwf	___wmul@multiplier+1
  2280     04CA  087A               	movf	read_prec_or_width@n,w
  2281     04CB  00F0               	movwf	___wmul@multiplier
  2282     04CC  300A               	movlw	10
  2283     04CD  00F2               	movwf	___wmul@multiplicand
  2284     04CE  3000               	movlw	0
  2285     04CF  00F3               	movwf	___wmul@multiplicand+1
  2286     04D0  120A  118A  2365  120A  118A  	fcall	___wmul
  2287     04D5  0879               	movf	read_prec_or_width@c,w
  2288     04D6  0770               	addwf	?___wmul,w
  2289     04D7  00FA               	movwf	read_prec_or_width@n
  2290     04D8  3000               	movlw	0
  2291     04D9  1803               	skipnc
  2292     04DA  3001               	movlw	1
  2293     04DB  0771               	addwf	?___wmul+1,w
  2294     04DC  00FB               	movwf	read_prec_or_width@n+1
  2295     04DD                     l1158:
  2296                           
  2297                           ;C:\Program Files\Microchip\xc8\v3.10\pic\sources\c99\common\doprnt.c: 1167:            
      +                           ++*fmt;
  2298     04DD  0876               	movf	read_prec_or_width@fmt,w
  2299     04DE  0084               	movwf	4
  2300     04DF  3001               	movlw	1
  2301     04E0  1383               	bcf	3,7	;select IRP bank0
  2302     04E1  0780               	addwf	0,f
  2303     04E2                     l1160:
  2304                           
  2305                           ;C:\Program Files\Microchip\xc8\v3.10\pic\sources\c99\common\doprnt.c: 1165:         whi
      +                          le ((c = ((unsigned)(*fmt)[0]) - '0') < 10) {
  2306     04E2  0876               	movf	read_prec_or_width@fmt,w
  2307     04E3  0084               	movwf	4
  2308     04E4  0800               	movf	0,w
  2309     04E5  0084               	movwf	4
  2310     04E6  120A  118A  2003  120A  118A  	fcall	stringdir
  2311     04EB  3ED0               	addlw	208
  2312     04EC  00F9               	movwf	read_prec_or_width@c
  2313     04ED  300A               	movlw	10
  2314     04EE  0279               	subwf	read_prec_or_width@c,w
  2315     04EF  1C03               	skipc
  2316     04F0  2CF2               	goto	u831
  2317     04F1  2CF3               	goto	u830
  2318     04F2                     u831:
  2319     04F2  2CC8               	goto	l1156
  2320     04F3                     u830:
  2321     04F3                     l1162:
  2322                           
  2323                           ;C:\Program Files\Microchip\xc8\v3.10\pic\sources\c99\common\doprnt.c: 1170:     return 
      +                          n;
  2324     04F3  087B               	movf	read_prec_or_width@n+1,w
  2325     04F4  00F7               	movwf	?_read_prec_or_width+1
  2326     04F5  087A               	movf	read_prec_or_width@n,w
  2327     04F6  00F6               	movwf	?_read_prec_or_width
  2328     04F7                     l656:
  2329     04F7  0008               	return
  2330     04F8                     __end_of_read_prec_or_width:
  2331                           
  2332                           	psect	text12
  2333     0365                     __ptext12:	
  2334 ;; *************** function ___wmul *****************
  2335 ;; Defined at:
  2336 ;;		line 15 in file "C:\Program Files\Microchip\xc8\v3.10\pic\sources\c99\common\Umul16.c"
  2337 ;; Parameters:    Size  Location     Type
  2338 ;;  multiplier      2    0[COMMON] unsigned int 
  2339 ;;  multiplicand    2    2[COMMON] unsigned int 
  2340 ;; Auto vars:     Size  Location     Type
  2341 ;;  product         2    4[COMMON] unsigned int 
  2342 ;; Return value:  Size  Location     Type
  2343 ;;                  2    0[COMMON] unsigned int 
  2344 ;; Registers used:
  2345 ;;		wreg, status,2, status,0
  2346 ;; Tracked objects:
  2347 ;;		On entry : 0/0
  2348 ;;		On exit  : 0/0
  2349 ;;		Unchanged: 0/0
  2350 ;; Data sizes:     COMMON   BANK0   BANK1   BANK3   BANK2
  2351 ;;      Params:         4       0       0       0       0
  2352 ;;      Locals:         2       0       0       0       0
  2353 ;;      Temps:          0       0       0       0       0
  2354 ;;      Totals:         6       0       0       0       0
  2355 ;;Total ram usage:        6 bytes
  2356 ;; Hardware stack levels used: 1
  2357 ;; This function calls:
  2358 ;;		Nothing
  2359 ;; This function is called by:
  2360 ;;		_read_prec_or_width
  2361 ;; This function uses a non-reentrant model
  2362 ;;
  2363                           
  2364     0365                     ___wmul:	
  2365                           ;psect for function ___wmul
  2366                           
  2367     0365                     l1046:	
  2368                           ;incstack = 0
  2369                           ; Regs used in ___wmul: [wreg+status,2+status,0]
  2370                           
  2371     0365  01F4               	clrf	___wmul@product
  2372     0366  01F5               	clrf	___wmul@product+1
  2373     0367                     l1048:
  2374     0367  1C70               	btfss	___wmul@multiplier,0
  2375     0368  2B6A               	goto	u581
  2376     0369  2B6B               	goto	u580
  2377     036A                     u581:
  2378     036A  2B71               	goto	l154
  2379     036B                     u580:
  2380     036B                     l1050:
  2381     036B  0872               	movf	___wmul@multiplicand,w
  2382     036C  07F4               	addwf	___wmul@product,f
  2383     036D  1803               	skipnc
  2384     036E  0AF5               	incf	___wmul@product+1,f
  2385     036F  0873               	movf	___wmul@multiplicand+1,w
  2386     0370  07F5               	addwf	___wmul@product+1,f
  2387     0371                     l154:
  2388     0371  3001               	movlw	1
  2389     0372                     u595:
  2390     0372  1003               	clrc
  2391     0373  0DF2               	rlf	___wmul@multiplicand,f
  2392     0374  0DF3               	rlf	___wmul@multiplicand+1,f
  2393     0375  3EFF               	addlw	-1
  2394     0376  1D03               	skipz
  2395     0377  2B72               	goto	u595
  2396     0378                     l1052:
  2397     0378  3001               	movlw	1
  2398     0379                     u605:
  2399     0379  1003               	clrc
  2400     037A  0CF1               	rrf	___wmul@multiplier+1,f
  2401     037B  0CF0               	rrf	___wmul@multiplier,f
  2402     037C  3EFF               	addlw	-1
  2403     037D  1D03               	skipz
  2404     037E  2B79               	goto	u605
  2405     037F                     l1054:
  2406     037F  0870               	movf	___wmul@multiplier,w
  2407     0380  0471               	iorwf	___wmul@multiplier+1,w
  2408     0381  1D03               	btfss	3,2
  2409     0382  2B84               	goto	u611
  2410     0383  2B85               	goto	u610
  2411     0384                     u611:
  2412     0384  2B67               	goto	l1048
  2413     0385                     u610:
  2414     0385                     l1056:
  2415     0385  0875               	movf	___wmul@product+1,w
  2416     0386  00F1               	movwf	?___wmul+1
  2417     0387  0874               	movf	___wmul@product,w
  2418     0388  00F0               	movwf	?___wmul
  2419     0389                     l156:
  2420     0389  0008               	return
  2421     038A                     __end_of___wmul:
  2422                           
  2423                           	psect	text13
  2424     02F5                     __ptext13:	
  2425 ;; *************** function _lcd_string *****************
  2426 ;; Defined at:
  2427 ;;		line 89 in file "ADC_LCD.c"
  2428 ;; Parameters:    Size  Location     Type
  2429 ;;  str             1    3[COMMON] PTR const unsigned char 
  2430 ;;		 -> main@buffer(16), 
  2431 ;; Auto vars:     Size  Location     Type
  2432 ;;		None
  2433 ;; Return value:  Size  Location     Type
  2434 ;;                  1    wreg      void 
  2435 ;; Registers used:
  2436 ;;		wreg, fsr0l, fsr0h, status,2, status,0, pclath, cstack
  2437 ;; Tracked objects:
  2438 ;;		On entry : 0/0
  2439 ;;		On exit  : 0/0
  2440 ;;		Unchanged: 0/0
  2441 ;; Data sizes:     COMMON   BANK0   BANK1   BANK3   BANK2
  2442 ;;      Params:         1       0       0       0       0
  2443 ;;      Locals:         0       0       0       0       0
  2444 ;;      Temps:          0       0       0       0       0
  2445 ;;      Totals:         1       0       0       0       0
  2446 ;;Total ram usage:        1 bytes
  2447 ;; Hardware stack levels used: 1
  2448 ;; Hardware stack levels required when called: 1
  2449 ;; This function calls:
  2450 ;;		_lcd_write
  2451 ;; This function is called by:
  2452 ;;		_main
  2453 ;; This function uses a non-reentrant model
  2454 ;;
  2455                           
  2456     02F5                     _lcd_string:	
  2457                           ;psect for function _lcd_string
  2458                           
  2459     02F5                     l1270:	
  2460                           ;incstack = 0
  2461                           ; Regs used in _lcd_string: [wreg-fsr0h+status,2+status,0+pclath+cstack]
  2462                           
  2463                           
  2464                           ;ADC_LCD.c: 90:         raw = adc_read_an0();
  2465     02F5  2B00               	goto	l1276
  2466     02F6                     l1272:
  2467                           
  2468                           ;ADC_LCD.c: 91:         mv = ((unsigned long)raw * 5000) / 1023;
  2469     02F6  0873               	movf	lcd_string@str,w
  2470     02F7  0084               	movwf	4
  2471     02F8  0800               	movf	0,w
  2472     02F9  120A  118A  22E1  120A  118A  	fcall	_lcd_write
  2473     02FE                     l1274:
  2474     02FE  3001               	movlw	1
  2475     02FF  07F3               	addwf	lcd_string@str,f
  2476     0300                     l1276:
  2477                           
  2478                           ;ADC_LCD.c: 90:         raw = adc_read_an0();
  2479     0300  0873               	movf	lcd_string@str,w
  2480     0301  0084               	movwf	4
  2481     0302  1383               	bcf	3,7	;select IRP bank0
  2482     0303  0800               	movf	0,w
  2483     0304  1D03               	btfss	3,2
  2484     0305  2B07               	goto	u901
  2485     0306  2B08               	goto	u900
  2486     0307                     u901:
  2487     0307  2AF6               	goto	l1272
  2488     0308                     u900:
  2489     0308                     l60:
  2490     0308  0008               	return
  2491     0309                     __end_of_lcd_string:
  2492                           
  2493                           	psect	text14
  2494     02E1                     __ptext14:	
  2495 ;; *************** function _lcd_write *****************
  2496 ;; Defined at:
  2497 ;;		line 57 in file "ADC_LCD.c"
  2498 ;; Parameters:    Size  Location     Type
  2499 ;;  data            1    wreg     unsigned char 
  2500 ;; Auto vars:     Size  Location     Type
  2501 ;;  data            1    2[COMMON] unsigned char 
  2502 ;; Return value:  Size  Location     Type
  2503 ;;                  1    wreg      void 
  2504 ;; Registers used:
  2505 ;;		wreg
  2506 ;; Tracked objects:
  2507 ;;		On entry : 0/0
  2508 ;;		On exit  : 0/0
  2509 ;;		Unchanged: 0/0
  2510 ;; Data sizes:     COMMON   BANK0   BANK1   BANK3   BANK2
  2511 ;;      Params:         0       0       0       0       0
  2512 ;;      Locals:         1       0       0       0       0
  2513 ;;      Temps:          2       0       0       0       0
  2514 ;;      Totals:         3       0       0       0       0
  2515 ;;Total ram usage:        3 bytes
  2516 ;; Hardware stack levels used: 1
  2517 ;; This function calls:
  2518 ;;		Nothing
  2519 ;; This function is called by:
  2520 ;;		_lcd_string
  2521 ;; This function uses a non-reentrant model
  2522 ;;
  2523                           
  2524     02E1                     _lcd_write:	
  2525                           ;psect for function _lcd_write
  2526                           
  2527                           
  2528                           ;incstack = 0
  2529                           ; Regs used in _lcd_write: [wreg]
  2530                           ;lcd_write@data stored from wreg
  2531     02E1  00F2               	movwf	lcd_write@data
  2532     02E2                     l1214:
  2533                           
  2534                           ;ADC_LCD.c: 58:     lcd_cmd(0x06);
  2535     02E2  1283               	bcf	3,5	;RP0=0, select bank0
  2536     02E3  1303               	bcf	3,6	;RP1=0, select bank0
  2537     02E4  1706               	bsf	6,6	;volatile
  2538     02E5                     l1216:
  2539                           
  2540                           ;ADC_LCD.c: 59:     lcd_cmd(0x01);
  2541     02E5  0872               	movf	lcd_write@data,w
  2542     02E6  0088               	movwf	8	;volatile
  2543     02E7                     l1218:
  2544                           
  2545                           ;ADC_LCD.c: 60:     _delay((unsigned long)((2)*(20000000/4000.0)));
  2546     02E7  1786               	bsf	6,7	;volatile
  2547                           
  2548                           ;ADC_LCD.c: 61: }
  2549     02E8  300D               	movlw	13
  2550     02E9  00F1               	movwf	??_lcd_write+1
  2551     02EA  30FB               	movlw	251
  2552     02EB  00F0               	movwf	??_lcd_write
  2553     02EC                     u1047:
  2554     02EC  0BF0               	decfsz	??_lcd_write,f
  2555     02ED  2AEC               	goto	u1047
  2556     02EE  0BF1               	decfsz	??_lcd_write+1,f
  2557     02EF  2AEC               	goto	u1047
  2558     02F0  2AF1               	nop2
  2559     02F1                     l1220:
  2560                           
  2561                           ;ADC_LCD.c: 62: 
  2562     02F1  1283               	bcf	3,5	;RP0=0, select bank0
  2563     02F2  1303               	bcf	3,6	;RP1=0, select bank0
  2564     02F3  1386               	bcf	6,7	;volatile
  2565     02F4                     l43:
  2566     02F4  0008               	return
  2567     02F5                     __end_of_lcd_write:
  2568                           
  2569                           	psect	text15
  2570     0309                     __ptext15:	
  2571 ;; *************** function _lcd_set_cursor *****************
  2572 ;; Defined at:
  2573 ;;		line 82 in file "ADC_LCD.c"
  2574 ;; Parameters:    Size  Location     Type
  2575 ;;  row             1    wreg     unsigned char 
  2576 ;;  col             1    3[COMMON] unsigned char 
  2577 ;; Auto vars:     Size  Location     Type
  2578 ;;  row             1    4[COMMON] unsigned char 
  2579 ;; Return value:  Size  Location     Type
  2580 ;;                  1    wreg      void 
  2581 ;; Registers used:
  2582 ;;		wreg, status,2, status,0, pclath, cstack
  2583 ;; Tracked objects:
  2584 ;;		On entry : 0/0
  2585 ;;		On exit  : 0/0
  2586 ;;		Unchanged: 0/0
  2587 ;; Data sizes:     COMMON   BANK0   BANK1   BANK3   BANK2
  2588 ;;      Params:         1       0       0       0       0
  2589 ;;      Locals:         1       0       0       0       0
  2590 ;;      Temps:          0       0       0       0       0
  2591 ;;      Totals:         2       0       0       0       0
  2592 ;;Total ram usage:        2 bytes
  2593 ;; Hardware stack levels used: 1
  2594 ;; Hardware stack levels required when called: 1
  2595 ;; This function calls:
  2596 ;;		_lcd_cmd
  2597 ;; This function is called by:
  2598 ;;		_main
  2599 ;; This function uses a non-reentrant model
  2600 ;;
  2601                           
  2602     0309                     _lcd_set_cursor:	
  2603                           ;psect for function _lcd_set_cursor
  2604                           
  2605                           
  2606                           ;incstack = 0
  2607                           ; Regs used in _lcd_set_cursor: [wreg+status,2+status,0+pclath+cstack]
  2608                           ;lcd_set_cursor@row stored from wreg
  2609     0309  00F4               	movwf	lcd_set_cursor@row
  2610     030A                     l1264:
  2611                           
  2612                           ;ADC_LCD.c: 83:     char buffer[16];
  2613     030A  0374               	decf	lcd_set_cursor@row,w
  2614     030B  1D03               	btfss	3,2
  2615     030C  2B0E               	goto	u891
  2616     030D  2B0F               	goto	u890
  2617     030E                     u891:
  2618     030E  2B17               	goto	l1268
  2619     030F                     u890:
  2620     030F                     l1266:
  2621                           
  2622                           ;ADC_LCD.c: 84: 
  2623     030F  0873               	movf	lcd_set_cursor@col,w
  2624     0310  3E7F               	addlw	127
  2625     0311  120A  118A  22CD  120A  118A  	fcall	_lcd_cmd
  2626     0316  2B1E               	goto	l54
  2627     0317                     l1268:
  2628                           
  2629                           ;ADC_LCD.c: 86:     adc_init();
  2630     0317  0873               	movf	lcd_set_cursor@col,w
  2631     0318  3EBF               	addlw	191
  2632     0319  120A  118A  22CD  120A  118A  	fcall	_lcd_cmd
  2633     031E                     l54:
  2634     031E  0008               	return
  2635     031F                     __end_of_lcd_set_cursor:
  2636                           
  2637                           	psect	text16
  2638     03B5                     __ptext16:	
  2639 ;; *************** function _lcd_init *****************
  2640 ;; Defined at:
  2641 ;;		line 65 in file "ADC_LCD.c"
  2642 ;; Parameters:    Size  Location     Type
  2643 ;;		None
  2644 ;; Auto vars:     Size  Location     Type
  2645 ;;		None
  2646 ;; Return value:  Size  Location     Type
  2647 ;;                  1    wreg      void 
  2648 ;; Registers used:
  2649 ;;		wreg, status,2, status,0, pclath, cstack
  2650 ;; Tracked objects:
  2651 ;;		On entry : 0/0
  2652 ;;		On exit  : 0/0
  2653 ;;		Unchanged: 0/0
  2654 ;; Data sizes:     COMMON   BANK0   BANK1   BANK3   BANK2
  2655 ;;      Params:         0       0       0       0       0
  2656 ;;      Locals:         0       0       0       0       0
  2657 ;;      Temps:          2       0       0       0       0
  2658 ;;      Totals:         2       0       0       0       0
  2659 ;;Total ram usage:        2 bytes
  2660 ;; Hardware stack levels used: 1
  2661 ;; Hardware stack levels required when called: 1
  2662 ;; This function calls:
  2663 ;;		_lcd_cmd
  2664 ;; This function is called by:
  2665 ;;		_main
  2666 ;; This function uses a non-reentrant model
  2667 ;;
  2668                           
  2669     03B5                     _lcd_init:	
  2670                           ;psect for function _lcd_init
  2671                           
  2672     03B5                     l1244:	
  2673                           ;incstack = 0
  2674                           ; Regs used in _lcd_init: [wreg+status,2+status,0+pclath+cstack]
  2675                           
  2676                           
  2677                           ;ADC_LCD.c: 66: 
  2678     03B5  1683               	bsf	3,5	;RP0=1, select bank1
  2679     03B6  1303               	bcf	3,6	;RP1=0, select bank1
  2680     03B7  0188               	clrf	8	;volatile
  2681     03B8                     l1246:
  2682                           
  2683                           ;ADC_LCD.c: 67: void lcd_set_cursor(unsigned char row, unsigned char col){
  2684     03B8  1306               	bcf	6,6	;volatile
  2685     03B9                     l1248:
  2686                           
  2687                           ;ADC_LCD.c: 68:     if(row == 1)
  2688     03B9  1386               	bcf	6,7	;volatile
  2689     03BA                     l1250:
  2690                           
  2691                           ;ADC_LCD.c: 70:     else
  2692     03BA  3062               	movlw	98
  2693     03BB  00F4               	movwf	??_lcd_init+1
  2694     03BC  3065               	movlw	101
  2695     03BD  00F3               	movwf	??_lcd_init
  2696     03BE                     u1057:
  2697     03BE  0BF3               	decfsz	??_lcd_init,f
  2698     03BF  2BBE               	goto	u1057
  2699     03C0  0BF4               	decfsz	??_lcd_init+1,f
  2700     03C1  2BBE               	goto	u1057
  2701     03C2  2BC3               	nop2
  2702     03C3                     l1252:
  2703                           
  2704                           ;ADC_LCD.c: 71:         lcd_cmd(0xC0 + (col - 1));
  2705     03C3  3038               	movlw	56
  2706     03C4  120A  118A  22CD  120A  118A  	fcall	_lcd_cmd
  2707     03C9                     l1254:
  2708                           
  2709                           ;ADC_LCD.c: 72: }
  2710     03C9  300C               	movlw	12
  2711     03CA  120A  118A  22CD  120A  118A  	fcall	_lcd_cmd
  2712     03CF                     l1256:
  2713                           
  2714                           ;ADC_LCD.c: 73: 
  2715     03CF  3006               	movlw	6
  2716     03D0  120A  118A  22CD  120A  118A  	fcall	_lcd_cmd
  2717     03D5                     l1258:
  2718                           
  2719                           ;ADC_LCD.c: 74: void lcd_string(const char *str){
  2720     03D5  3001               	movlw	1
  2721     03D6  120A  118A  22CD  120A  118A  	fcall	_lcd_cmd
  2722     03DB                     l1260:
  2723                           
  2724                           ;ADC_LCD.c: 75:     while(*str){
  2725     03DB  300D               	movlw	13
  2726     03DC  00F4               	movwf	??_lcd_init+1
  2727     03DD  30FB               	movlw	251
  2728     03DE  00F3               	movwf	??_lcd_init
  2729     03DF                     u1067:
  2730     03DF  0BF3               	decfsz	??_lcd_init,f
  2731     03E0  2BDF               	goto	u1067
  2732     03E1  0BF4               	decfsz	??_lcd_init+1,f
  2733     03E2  2BDF               	goto	u1067
  2734     03E3  2BE4               	nop2
  2735     03E4                     l46:
  2736     03E4  0008               	return
  2737     03E5                     __end_of_lcd_init:
  2738                           
  2739                           	psect	text17
  2740     029D                     __ptext17:	
  2741 ;; *************** function _lcd_clear *****************
  2742 ;; Defined at:
  2743 ;;		line 78 in file "ADC_LCD.c"
  2744 ;; Parameters:    Size  Location     Type
  2745 ;;		None
  2746 ;; Auto vars:     Size  Location     Type
  2747 ;;		None
  2748 ;; Return value:  Size  Location     Type
  2749 ;;                  1    wreg      void 
  2750 ;; Registers used:
  2751 ;;		wreg, status,2, status,0, pclath, cstack
  2752 ;; Tracked objects:
  2753 ;;		On entry : 0/0
  2754 ;;		On exit  : 0/0
  2755 ;;		Unchanged: 0/0
  2756 ;; Data sizes:     COMMON   BANK0   BANK1   BANK3   BANK2
  2757 ;;      Params:         0       0       0       0       0
  2758 ;;      Locals:         0       0       0       0       0
  2759 ;;      Temps:          0       0       0       0       0
  2760 ;;      Totals:         0       0       0       0       0
  2761 ;;Total ram usage:        0 bytes
  2762 ;; Hardware stack levels used: 1
  2763 ;; Hardware stack levels required when called: 1
  2764 ;; This function calls:
  2765 ;;		_lcd_cmd
  2766 ;; This function is called by:
  2767 ;;		_main
  2768 ;; This function uses a non-reentrant model
  2769 ;;
  2770                           
  2771     029D                     _lcd_clear:	
  2772                           ;psect for function _lcd_clear
  2773                           
  2774     029D                     l1262:	
  2775                           ;incstack = 0
  2776                           ; Regs used in _lcd_clear: [wreg+status,2+status,0+pclath+cstack]
  2777                           
  2778                           
  2779                           ;ADC_LCD.c: 79: 
  2780     029D  3001               	movlw	1
  2781     029E  120A  118A  22CD  120A  118A  	fcall	_lcd_cmd
  2782     02A3                     l49:
  2783     02A3  0008               	return
  2784     02A4                     __end_of_lcd_clear:
  2785                           
  2786                           	psect	text18
  2787     02CD                     __ptext18:	
  2788 ;; *************** function _lcd_cmd *****************
  2789 ;; Defined at:
  2790 ;;		line 49 in file "ADC_LCD.c"
  2791 ;; Parameters:    Size  Location     Type
  2792 ;;  cmd             1    wreg     unsigned char 
  2793 ;; Auto vars:     Size  Location     Type
  2794 ;;  cmd             1    2[COMMON] unsigned char 
  2795 ;; Return value:  Size  Location     Type
  2796 ;;                  1    wreg      void 
  2797 ;; Registers used:
  2798 ;;		wreg
  2799 ;; Tracked objects:
  2800 ;;		On entry : 0/0
  2801 ;;		On exit  : 0/0
  2802 ;;		Unchanged: 0/0
  2803 ;; Data sizes:     COMMON   BANK0   BANK1   BANK3   BANK2
  2804 ;;      Params:         0       0       0       0       0
  2805 ;;      Locals:         1       0       0       0       0
  2806 ;;      Temps:          2       0       0       0       0
  2807 ;;      Totals:         3       0       0       0       0
  2808 ;;Total ram usage:        3 bytes
  2809 ;; Hardware stack levels used: 1
  2810 ;; This function calls:
  2811 ;;		Nothing
  2812 ;; This function is called by:
  2813 ;;		_lcd_init
  2814 ;;		_lcd_clear
  2815 ;;		_lcd_set_cursor
  2816 ;; This function uses a non-reentrant model
  2817 ;;
  2818                           
  2819     02CD                     _lcd_cmd:	
  2820                           ;psect for function _lcd_cmd
  2821                           
  2822                           
  2823                           ;incstack = 0
  2824                           ; Regs used in _lcd_cmd: [wreg]
  2825                           ;lcd_cmd@cmd stored from wreg
  2826     02CD  00F2               	movwf	lcd_cmd@cmd
  2827     02CE                     l1206:
  2828                           
  2829                           ;ADC_LCD.c: 50: void lcd_init(void){
  2830     02CE  1283               	bcf	3,5	;RP0=0, select bank0
  2831     02CF  1303               	bcf	3,6	;RP1=0, select bank0
  2832     02D0  1306               	bcf	6,6	;volatile
  2833     02D1                     l1208:
  2834                           
  2835                           ;ADC_LCD.c: 51:     TRISD = 0x00;
  2836     02D1  0872               	movf	lcd_cmd@cmd,w
  2837     02D2  0088               	movwf	8	;volatile
  2838     02D3                     l1210:
  2839                           
  2840                           ;ADC_LCD.c: 52:     TRISB6 = 0;
  2841     02D3  1786               	bsf	6,7	;volatile
  2842                           
  2843                           ;ADC_LCD.c: 53:     TRISB7 = 0;
  2844     02D4  300D               	movlw	13
  2845     02D5  00F1               	movwf	??_lcd_cmd+1
  2846     02D6  30FB               	movlw	251
  2847     02D7  00F0               	movwf	??_lcd_cmd
  2848     02D8                     u1077:
  2849     02D8  0BF0               	decfsz	??_lcd_cmd,f
  2850     02D9  2AD8               	goto	u1077
  2851     02DA  0BF1               	decfsz	??_lcd_cmd+1,f
  2852     02DB  2AD8               	goto	u1077
  2853     02DC  2ADD               	nop2
  2854     02DD                     l1212:
  2855                           
  2856                           ;ADC_LCD.c: 54: 
  2857     02DD  1283               	bcf	3,5	;RP0=0, select bank0
  2858     02DE  1303               	bcf	3,6	;RP1=0, select bank0
  2859     02DF  1386               	bcf	6,7	;volatile
  2860     02E0                     l40:
  2861     02E0  0008               	return
  2862     02E1                     __end_of_lcd_cmd:
  2863                           
  2864                           	psect	text19
  2865     02BB                     __ptext19:	
  2866 ;; *************** function _adc_read_an0 *****************
  2867 ;; Defined at:
  2868 ;;		line 39 in file "ADC_LCD.c"
  2869 ;; Parameters:    Size  Location     Type
  2870 ;;		None
  2871 ;; Auto vars:     Size  Location     Type
  2872 ;;		None
  2873 ;; Return value:  Size  Location     Type
  2874 ;;                  2    0[COMMON] unsigned int 
  2875 ;; Registers used:
  2876 ;;		wreg
  2877 ;; Tracked objects:
  2878 ;;		On entry : 0/0
  2879 ;;		On exit  : 0/0
  2880 ;;		Unchanged: 0/0
  2881 ;; Data sizes:     COMMON   BANK0   BANK1   BANK3   BANK2
  2882 ;;      Params:         2       0       0       0       0
  2883 ;;      Locals:         0       0       0       0       0
  2884 ;;      Temps:          1       0       0       0       0
  2885 ;;      Totals:         3       0       0       0       0
  2886 ;;Total ram usage:        3 bytes
  2887 ;; Hardware stack levels used: 1
  2888 ;; This function calls:
  2889 ;;		Nothing
  2890 ;; This function is called by:
  2891 ;;		_main
  2892 ;; This function uses a non-reentrant model
  2893 ;;
  2894                           
  2895     02BB                     _adc_read_an0:	
  2896                           ;psect for function _adc_read_an0
  2897                           
  2898     02BB                     l1236:	
  2899                           ;incstack = 0
  2900                           ; Regs used in _adc_read_an0: [wreg]
  2901                           
  2902                           
  2903                           ;ADC_LCD.c: 40: }
  2904     02BB  3021               	movlw	33
  2905     02BC  00F2               	movwf	??_adc_read_an0
  2906     02BD                     u1087:
  2907     02BD  0BF2               	decfsz	??_adc_read_an0,f
  2908     02BE  2ABD               	goto	u1087
  2909     02BF                     l1238:
  2910                           
  2911                           ;ADC_LCD.c: 41: 
  2912     02BF  1283               	bcf	3,5	;RP0=0, select bank0
  2913     02C0  1303               	bcf	3,6	;RP1=0, select bank0
  2914     02C1  151F               	bsf	31,2	;volatile
  2915     02C2                     l34:	
  2916                           ;ADC_LCD.c: 42: void lcd_write(unsigned char data){
  2917                           
  2918     02C2  191F               	btfsc	31,2	;volatile
  2919     02C3  2AC5               	goto	u881
  2920     02C4  2AC6               	goto	u880
  2921     02C5                     u881:
  2922     02C5  2AC2               	goto	l34
  2923     02C6                     u880:
  2924     02C6                     l1240:
  2925                           
  2926                           ;ADC_LCD.c: 43:     RB6 = 1;
  2927     02C6  081E               	movf	30,w	;volatile
  2928     02C7  00F1               	movwf	?_adc_read_an0+1
  2929     02C8  1683               	bsf	3,5	;RP0=1, select bank1
  2930     02C9  1303               	bcf	3,6	;RP1=0, select bank1
  2931     02CA  081E               	movf	30,w	;volatile
  2932     02CB  00F0               	movwf	?_adc_read_an0
  2933     02CC                     l37:
  2934     02CC  0008               	return
  2935     02CD                     __end_of_adc_read_an0:
  2936                           
  2937                           	psect	text20
  2938     02AC                     __ptext20:	
  2939 ;; *************** function _adc_init *****************
  2940 ;; Defined at:
  2941 ;;		line 31 in file "ADC_LCD.c"
  2942 ;; Parameters:    Size  Location     Type
  2943 ;;		None
  2944 ;; Auto vars:     Size  Location     Type
  2945 ;;		None
  2946 ;; Return value:  Size  Location     Type
  2947 ;;                  1    wreg      void 
  2948 ;; Registers used:
  2949 ;;		wreg
  2950 ;; Tracked objects:
  2951 ;;		On entry : 0/0
  2952 ;;		On exit  : 0/0
  2953 ;;		Unchanged: 0/0
  2954 ;; Data sizes:     COMMON   BANK0   BANK1   BANK3   BANK2
  2955 ;;      Params:         0       0       0       0       0
  2956 ;;      Locals:         0       0       0       0       0
  2957 ;;      Temps:          1       0       0       0       0
  2958 ;;      Totals:         1       0       0       0       0
  2959 ;;Total ram usage:        1 bytes
  2960 ;; Hardware stack levels used: 1
  2961 ;; This function calls:
  2962 ;;		Nothing
  2963 ;; This function is called by:
  2964 ;;		_main
  2965 ;; This function uses a non-reentrant model
  2966 ;;
  2967                           
  2968     02AC                     _adc_init:	
  2969                           ;psect for function _adc_init
  2970                           
  2971     02AC                     l1232:	
  2972                           ;incstack = 0
  2973                           ; Regs used in _adc_init: [wreg]
  2974                           
  2975                           
  2976                           ;ADC_LCD.c: 32: 
  2977     02AC  3001               	movlw	1
  2978     02AD  1683               	bsf	3,5	;RP0=1, select bank1
  2979     02AE  1303               	bcf	3,6	;RP1=0, select bank1
  2980     02AF  0085               	movwf	5	;volatile
  2981                           
  2982                           ;ADC_LCD.c: 33: 
  2983     02B0  30CE               	movlw	206
  2984     02B1  009F               	movwf	31	;volatile
  2985                           
  2986                           ;ADC_LCD.c: 34: void lcd_cmd(unsigned char cmd){
  2987     02B2  3081               	movlw	129
  2988     02B3  1283               	bcf	3,5	;RP0=0, select bank0
  2989     02B4  1303               	bcf	3,6	;RP1=0, select bank0
  2990     02B5  009F               	movwf	31	;volatile
  2991     02B6                     l1234:
  2992                           
  2993                           ;ADC_LCD.c: 35:     RB6 = 0;
  2994     02B6  3021               	movlw	33
  2995     02B7  00F0               	movwf	??_adc_init
  2996     02B8                     u1097:
  2997     02B8  0BF0               	decfsz	??_adc_init,f
  2998     02B9  2AB8               	goto	u1097
  2999     02BA                     l31:
  3000     02BA  0008               	return
  3001     02BB                     __end_of_adc_init:
  3002                           
  3003                           	psect	text21
  3004     045F                     __ptext21:	
  3005 ;; *************** function ___lmul *****************
  3006 ;; Defined at:
  3007 ;;		line 15 in file "C:\Program Files\Microchip\xc8\v3.10\pic\sources\c99\common\Umul32.c"
  3008 ;; Parameters:    Size  Location     Type
  3009 ;;  multiplier      4    0[COMMON] unsigned long 
  3010 ;;  multiplicand    4    4[COMMON] unsigned long 
  3011 ;; Auto vars:     Size  Location     Type
  3012 ;;  product         4    9[COMMON] unsigned long 
  3013 ;; Return value:  Size  Location     Type
  3014 ;;                  4    0[COMMON] unsigned long 
  3015 ;; Registers used:
  3016 ;;		wreg, status,2, status,0
  3017 ;; Tracked objects:
  3018 ;;		On entry : 0/0
  3019 ;;		On exit  : 0/0
  3020 ;;		Unchanged: 0/0
  3021 ;; Data sizes:     COMMON   BANK0   BANK1   BANK3   BANK2
  3022 ;;      Params:         8       0       0       0       0
  3023 ;;      Locals:         4       0       0       0       0
  3024 ;;      Temps:          1       0       0       0       0
  3025 ;;      Totals:        13       0       0       0       0
  3026 ;;Total ram usage:       13 bytes
  3027 ;; Hardware stack levels used: 1
  3028 ;; This function calls:
  3029 ;;		Nothing
  3030 ;; This function is called by:
  3031 ;;		_main
  3032 ;; This function uses a non-reentrant model
  3033 ;;
  3034                           
  3035     045F                     ___lmul:	
  3036                           ;psect for function ___lmul
  3037                           
  3038     045F                     l1292:	
  3039                           ;incstack = 0
  3040                           ; Regs used in ___lmul: [wreg+status,2+status,0]
  3041                           
  3042     045F  3000               	movlw	0
  3043     0460  00FC               	movwf	___lmul@product+3
  3044     0461  3000               	movlw	0
  3045     0462  00FB               	movwf	___lmul@product+2
  3046     0463  3000               	movlw	0
  3047     0464  00FA               	movwf	___lmul@product+1
  3048     0465  3000               	movlw	0
  3049     0466  00F9               	movwf	___lmul@product
  3050     0467                     l1294:
  3051     0467  1C70               	btfss	___lmul@multiplier,0
  3052     0468  2C6A               	goto	u911
  3053     0469  2C6B               	goto	u910
  3054     046A                     u911:
  3055     046A  2C82               	goto	l1298
  3056     046B                     u910:
  3057     046B                     l1296:
  3058     046B  0874               	movf	___lmul@multiplicand,w
  3059     046C  07F9               	addwf	___lmul@product,f
  3060     046D  0875               	movf	___lmul@multiplicand+1,w
  3061     046E  1103               	clrz
  3062     046F  1803               	skipnc
  3063     0470  3E01               	addlw	1
  3064     0471  1903               	skipnz
  3065     0472  2C74               	goto	u921
  3066     0473  07FA               	addwf	___lmul@product+1,f
  3067     0474                     u921:
  3068     0474  0876               	movf	___lmul@multiplicand+2,w
  3069     0475  1103               	clrz
  3070     0476  1803               	skipnc
  3071     0477  3E01               	addlw	1
  3072     0478  1903               	skipnz
  3073     0479  2C7B               	goto	u922
  3074     047A  07FB               	addwf	___lmul@product+2,f
  3075     047B                     u922:
  3076     047B  0877               	movf	___lmul@multiplicand+3,w
  3077     047C  1103               	clrz
  3078     047D  1803               	skipnc
  3079     047E  3E01               	addlw	1
  3080     047F  1903               	skipnz
  3081     0480  2C82               	goto	u923
  3082     0481  07FC               	addwf	___lmul@product+3,f
  3083     0482                     u923:
  3084     0482                     l1298:
  3085     0482  3001               	movlw	1
  3086     0483  00F8               	movwf	??___lmul
  3087     0484                     u935:
  3088     0484  1003               	clrc
  3089     0485  0DF4               	rlf	___lmul@multiplicand,f
  3090     0486  0DF5               	rlf	___lmul@multiplicand+1,f
  3091     0487  0DF6               	rlf	___lmul@multiplicand+2,f
  3092     0488  0DF7               	rlf	___lmul@multiplicand+3,f
  3093     0489  0BF8               	decfsz	??___lmul,f
  3094     048A  2C84               	goto	u935
  3095     048B                     l1300:
  3096     048B  3001               	movlw	1
  3097     048C                     u945:
  3098     048C  1003               	clrc
  3099     048D  0CF3               	rrf	___lmul@multiplier+3,f
  3100     048E  0CF2               	rrf	___lmul@multiplier+2,f
  3101     048F  0CF1               	rrf	___lmul@multiplier+1,f
  3102     0490  0CF0               	rrf	___lmul@multiplier,f
  3103     0491  3EFF               	addlw	-1
  3104     0492  1D03               	skipz
  3105     0493  2C8C               	goto	u945
  3106     0494  0873               	movf	___lmul@multiplier+3,w
  3107     0495  0472               	iorwf	___lmul@multiplier+2,w
  3108     0496  0471               	iorwf	___lmul@multiplier+1,w
  3109     0497  0470               	iorwf	___lmul@multiplier,w
  3110     0498  1D03               	skipz
  3111     0499  2C9B               	goto	u951
  3112     049A  2C9C               	goto	u950
  3113     049B                     u951:
  3114     049B  2C67               	goto	l1294
  3115     049C                     u950:
  3116     049C                     l1302:
  3117     049C  087C               	movf	___lmul@product+3,w
  3118     049D  00F3               	movwf	?___lmul+3
  3119     049E  087B               	movf	___lmul@product+2,w
  3120     049F  00F2               	movwf	?___lmul+2
  3121     04A0  087A               	movf	___lmul@product+1,w
  3122     04A1  00F1               	movwf	?___lmul+1
  3123     04A2  0879               	movf	___lmul@product,w
  3124     04A3  00F0               	movwf	?___lmul
  3125     04A4                     l168:
  3126     04A4  0008               	return
  3127     04A5                     __end_of___lmul:
  3128                           
  3129                           	psect	text22
  3130     054F                     __ptext22:	
  3131 ;; *************** function ___lldiv *****************
  3132 ;; Defined at:
  3133 ;;		line 5 in file "C:\Program Files\Microchip\xc8\v3.10\pic\sources\c99\common\__lldiv.c"
  3134 ;; Parameters:    Size  Location     Type
  3135 ;;  divisor         4    0[BANK0 ] unsigned long 
  3136 ;;  dividend        4    4[BANK0 ] unsigned long 
  3137 ;; Auto vars:     Size  Location     Type
  3138 ;;  quotient        4    8[BANK0 ] unsigned long 
  3139 ;;  counter         1   12[BANK0 ] unsigned char 
  3140 ;; Return value:  Size  Location     Type
  3141 ;;                  4    0[BANK0 ] unsigned long 
  3142 ;; Registers used:
  3143 ;;		wreg, status,2, status,0
  3144 ;; Tracked objects:
  3145 ;;		On entry : 0/0
  3146 ;;		On exit  : 0/0
  3147 ;;		Unchanged: 0/0
  3148 ;; Data sizes:     COMMON   BANK0   BANK1   BANK3   BANK2
  3149 ;;      Params:         0       8       0       0       0
  3150 ;;      Locals:         0       5       0       0       0
  3151 ;;      Temps:          1       0       0       0       0
  3152 ;;      Totals:         1      13       0       0       0
  3153 ;;Total ram usage:       14 bytes
  3154 ;; Hardware stack levels used: 1
  3155 ;; This function calls:
  3156 ;;		Nothing
  3157 ;; This function is called by:
  3158 ;;		_main
  3159 ;; This function uses a non-reentrant model
  3160 ;;
  3161                           
  3162     054F                     ___lldiv:	
  3163                           ;psect for function ___lldiv
  3164                           
  3165     054F                     l1306:	
  3166                           ;incstack = 0
  3167                           ; Regs used in ___lldiv: [wreg+status,2+status,0]
  3168                           
  3169     054F  3000               	movlw	0
  3170     0550  1283               	bcf	3,5	;RP0=0, select bank0
  3171     0551  1303               	bcf	3,6	;RP1=0, select bank0
  3172     0552  00AB               	movwf	___lldiv@quotient+3
  3173     0553  3000               	movlw	0
  3174     0554  00AA               	movwf	___lldiv@quotient+2
  3175     0555  3000               	movlw	0
  3176     0556  00A9               	movwf	___lldiv@quotient+1
  3177     0557  3000               	movlw	0
  3178     0558  00A8               	movwf	___lldiv@quotient
  3179     0559  0823               	movf	___lldiv@divisor+3,w
  3180     055A  0422               	iorwf	___lldiv@divisor+2,w
  3181     055B  0421               	iorwf	___lldiv@divisor+1,w
  3182     055C  0420               	iorwf	___lldiv@divisor,w
  3183     055D  1903               	skipnz
  3184     055E  2D60               	goto	u961
  3185     055F  2D61               	goto	u960
  3186     0560                     u961:
  3187     0560  2DAC               	goto	l1326
  3188     0561                     u960:
  3189     0561                     l1308:
  3190     0561  3001               	movlw	1
  3191     0562  00AC               	movwf	___lldiv@counter
  3192     0563  2D6F               	goto	l1312
  3193     0564                     l1310:
  3194     0564  3001               	movlw	1
  3195     0565  00FD               	movwf	??___lldiv
  3196     0566                     u975:
  3197     0566  1003               	clrc
  3198     0567  0DA0               	rlf	___lldiv@divisor,f
  3199     0568  0DA1               	rlf	___lldiv@divisor+1,f
  3200     0569  0DA2               	rlf	___lldiv@divisor+2,f
  3201     056A  0DA3               	rlf	___lldiv@divisor+3,f
  3202     056B  0BFD               	decfsz	??___lldiv,f
  3203     056C  2D66               	goto	u975
  3204     056D  3001               	movlw	1
  3205     056E  07AC               	addwf	___lldiv@counter,f
  3206     056F                     l1312:
  3207     056F  1FA3               	btfss	___lldiv@divisor+3,7
  3208     0570  2D72               	goto	u981
  3209     0571  2D73               	goto	u980
  3210     0572                     u981:
  3211     0572  2D64               	goto	l1310
  3212     0573                     u980:
  3213     0573                     l1314:
  3214     0573  3001               	movlw	1
  3215     0574  00FD               	movwf	??___lldiv
  3216     0575                     u995:
  3217     0575  1003               	clrc
  3218     0576  0DA8               	rlf	___lldiv@quotient,f
  3219     0577  0DA9               	rlf	___lldiv@quotient+1,f
  3220     0578  0DAA               	rlf	___lldiv@quotient+2,f
  3221     0579  0DAB               	rlf	___lldiv@quotient+3,f
  3222     057A  0BFD               	decfsz	??___lldiv,f
  3223     057B  2D75               	goto	u995
  3224     057C                     l1316:
  3225     057C  0823               	movf	___lldiv@divisor+3,w
  3226     057D  0227               	subwf	___lldiv@dividend+3,w
  3227     057E  1D03               	skipz
  3228     057F  2D8A               	goto	u1005
  3229     0580  0822               	movf	___lldiv@divisor+2,w
  3230     0581  0226               	subwf	___lldiv@dividend+2,w
  3231     0582  1D03               	skipz
  3232     0583  2D8A               	goto	u1005
  3233     0584  0821               	movf	___lldiv@divisor+1,w
  3234     0585  0225               	subwf	___lldiv@dividend+1,w
  3235     0586  1D03               	skipz
  3236     0587  2D8A               	goto	u1005
  3237     0588  0820               	movf	___lldiv@divisor,w
  3238     0589  0224               	subwf	___lldiv@dividend,w
  3239     058A                     u1005:
  3240     058A  1C03               	skipc
  3241     058B  2D8D               	goto	u1001
  3242     058C  2D8E               	goto	u1000
  3243     058D                     u1001:
  3244     058D  2D9D               	goto	l1322
  3245     058E                     u1000:
  3246     058E                     l1318:
  3247     058E  0820               	movf	___lldiv@divisor,w
  3248     058F  02A4               	subwf	___lldiv@dividend,f
  3249     0590  0821               	movf	___lldiv@divisor+1,w
  3250     0591  1C03               	skipc
  3251     0592  0F21               	incfsz	___lldiv@divisor+1,w
  3252     0593  02A5               	subwf	___lldiv@dividend+1,f
  3253     0594  0822               	movf	___lldiv@divisor+2,w
  3254     0595  1C03               	skipc
  3255     0596  0F22               	incfsz	___lldiv@divisor+2,w
  3256     0597  02A6               	subwf	___lldiv@dividend+2,f
  3257     0598  0823               	movf	___lldiv@divisor+3,w
  3258     0599  1C03               	skipc
  3259     059A  0F23               	incfsz	___lldiv@divisor+3,w
  3260     059B  02A7               	subwf	___lldiv@dividend+3,f
  3261     059C                     l1320:
  3262     059C  1428               	bsf	___lldiv@quotient,0
  3263     059D                     l1322:
  3264     059D  3001               	movlw	1
  3265     059E                     u1015:
  3266     059E  1003               	clrc
  3267     059F  0CA3               	rrf	___lldiv@divisor+3,f
  3268     05A0  0CA2               	rrf	___lldiv@divisor+2,f
  3269     05A1  0CA1               	rrf	___lldiv@divisor+1,f
  3270     05A2  0CA0               	rrf	___lldiv@divisor,f
  3271     05A3  3EFF               	addlw	-1
  3272     05A4  1D03               	skipz
  3273     05A5  2D9E               	goto	u1015
  3274     05A6                     l1324:
  3275     05A6  3001               	movlw	1
  3276     05A7  02AC               	subwf	___lldiv@counter,f
  3277     05A8  1D03               	btfss	3,2
  3278     05A9  2DAB               	goto	u1021
  3279     05AA  2DAC               	goto	u1020
  3280     05AB                     u1021:
  3281     05AB  2D73               	goto	l1314
  3282     05AC                     u1020:
  3283     05AC                     l1326:
  3284     05AC  082B               	movf	___lldiv@quotient+3,w
  3285     05AD  00A3               	movwf	?___lldiv+3
  3286     05AE  082A               	movf	___lldiv@quotient+2,w
  3287     05AF  00A2               	movwf	?___lldiv+2
  3288     05B0  0829               	movf	___lldiv@quotient+1,w
  3289     05B1  00A1               	movwf	?___lldiv+1
  3290     05B2  0828               	movf	___lldiv@quotient,w
  3291     05B3  00A0               	movwf	?___lldiv
  3292     05B4                     l190:
  3293     05B4  0008               	return
  3294     05B5                     __end_of___lldiv:
  3295     0002                     ___latbits      equ	2
  3296     007E                     btemp           set	126	;btemp
  3297     007E                     btemp0          set	126
  3298     007F                     btemp1          set	127
  3299     007E                     wtemp0          set	126
  3300     007F                     wtemp0a         set	127
  3301     007F                     ttemp0a         set	127
  3302     0080                     ltemp0a         set	128
  3303                           
  3304                           	psect	config
  3305                           
  3306                           ;Config register CONFIG @ 0x2007
  3307                           ;	Oscillator Selection bits
  3308                           ;	FOSC = XT, XT oscillator
  3309                           ;	Watchdog Timer Enable bit
  3310                           ;	WDTE = OFF, WDT disabled
  3311                           ;	Power-up Timer Enable bit
  3312                           ;	PWRTE = OFF, PWRT disabled
  3313                           ;	Brown-out Reset Enable bit
  3314                           ;	BOREN = ON, BOR enabled
  3315                           ;	Low-Voltage (Single-Supply) In-Circuit Serial Programming Enable bit
  3316                           ;	LVP = OFF, RB3 is digital I/O, HV on MCLR must be used for programming
  3317                           ;	Data EEPROM Memory Code Protection bit
  3318                           ;	CPD = OFF, Data EEPROM code protection off
  3319                           ;	Flash Program Memory Write Enable bits
  3320                           ;	WRT = OFF, Write protection off; all program memory may be written to by EECON control
  3321                           ;	In-Circuit Debugger Mode bit
  3322                           ;	DEBUG = 0x1, unprogrammed default
  3323                           ;	Flash Program Memory Code Protection bit
  3324                           ;	CP = OFF, Code protection off
  3325     2007                     	org	8199
  3326     2007  3F79               	dw	16249

Data Sizes:
    Strings     18
    Constant    0
    Data        0
    BSS         37
    Persistent  0
    Stack       0

Auto Spaces:
    Space          Size  Autos    Used
    COMMON           14     14      14
    BANK0            80     80      80
    BANK1            80      0      37
    BANK3            96      0       0
    BANK2            96      0       0

Pointer List with Targets:

    f$.$buffer	PTR unsigned char  size(2) Largest target is 16
		 -> main@buffer(BANK0[16]), 

    f$.$source	PTR const unsigned char  size(1) Largest target is 0

    fputc@fp	PTR struct _IO_FILE size(2) Largest target is 11
		 -> sprintf@f(BANK0[11]), 

    fputc@fp$.$buffer	PTR unsigned char  size(2) Largest target is 16
		 -> main@buffer(BANK0[16]), 

    fputc@fp$.$source	PTR const unsigned char  size(1) Largest target is 0

    fputs@fp	PTR struct _IO_FILE size(2) Largest target is 11
		 -> sprintf@f(BANK0[11]), 

    fputs@s	PTR const unsigned char  size(1) Largest target is 32
		 -> dbuf(BANK1[32]), 

    lcd_string@str	PTR const unsigned char  size(1) Largest target is 16
		 -> main@buffer(BANK0[16]), 

    pad@buf	PTR unsigned char  size(1) Largest target is 32
		 -> dbuf(BANK1[32]), 

    pad@fp	PTR struct _IO_FILE size(2) Largest target is 11
		 -> sprintf@f(BANK0[11]), 

    read_prec_or_width@ap	PTR PTR void [1] size(1) Largest target is 1
		 -> sprintf@ap(BANK0[1]), 

    read_prec_or_width@fmt	PTR PTR const unsigned char  size(1) Largest target is 1
		 -> vfprintf@cfmt(BANK0[1]), 

    S518$buffer	PTR unsigned char  size(2) Largest target is 16
		 -> main@buffer(BANK0[16]), 

    S518$source	PTR const unsigned char  size(1) Largest target is 0

    sprintf@ap	PTR void [1] size(1) Largest target is 2
		 -> ?_sprintf(BANK0[2]), 

    sprintf@fmt	PTR const unsigned char  size(1) Largest target is 9
		 -> STR_1(CODE[9]), STR_2(CODE[9]), 

    sprintf@s	PTR unsigned char  size(1) Largest target is 16
		 -> main@buffer(BANK0[16]), 

    utoa@fp	PTR struct _IO_FILE size(2) Largest target is 11
		 -> sprintf@f(BANK0[11]), 

    vfpfcnvrt@ap	PTR PTR void  size(1) Largest target is 1
		 -> sprintf@ap(BANK0[1]), 

    vfpfcnvrt@cp	PTR unsigned char  size(1) Largest target is 9
		 -> STR_1(CODE[9]), STR_2(CODE[9]), 

    vfpfcnvrt@fmt	PTR PTR unsigned char  size(1) Largest target is 1
		 -> vfprintf@cfmt(BANK0[1]), 

    vfpfcnvrt@fp	PTR struct _IO_FILE size(2) Largest target is 11
		 -> sprintf@f(BANK0[11]), 

    vfprintf@ap	PTR PTR void  size(1) Largest target is 1
		 -> sprintf@ap(BANK0[1]), 

    vfprintf@cfmt	PTR unsigned char  size(1) Largest target is 9
		 -> STR_1(CODE[9]), STR_2(CODE[9]), 

    vfprintf@fmt	PTR const unsigned char  size(1) Largest target is 9
		 -> STR_1(CODE[9]), STR_2(CODE[9]), 

    vfprintf@fp	PTR struct _IO_FILE size(2) Largest target is 11
		 -> sprintf@f(BANK0[11]), 


Critical Paths under _main in COMMON

    _main->___lldiv
    _utoa->_pad
    _pad->_fputc
    _fputs->_fputc
    _read_prec_or_width->___wmul
    _lcd_string->_lcd_write
    _lcd_set_cursor->_lcd_cmd
    _lcd_init->_lcd_cmd
    _lcd_clear->_lcd_cmd
    ___lldiv->___lmul

Critical Paths under _main in BANK0

    _main->_sprintf
    _sprintf->_vfprintf
    _vfprintf->_vfpfcnvrt
    _vfpfcnvrt->_utoa
    _utoa->_pad
    _pad->_fputs

Critical Paths under _main in BANK1

    None.

Critical Paths under _main in BANK3

    None.

Critical Paths under _main in BANK2

    None.

Call Graph Tables:

 ---------------------------------------------------------------------------------
 (Depth) Function   	        Calls       Base Space   Used Autos Params    Refs
 ---------------------------------------------------------------------------------
 (0) _main                                                23    23      0    3160
                                             57 BANK0     23    23      0
                            ___lldiv
                             ___lmul
                           _adc_init
                       _adc_read_an0
                          _lcd_clear
                           _lcd_init
                     _lcd_set_cursor
                         _lcd_string
                            _sprintf
 ---------------------------------------------------------------------------------
 (1) _sprintf                                             19    15      4    2502
                                             40 BANK0     17    13      4
                           _vfprintf
 ---------------------------------------------------------------------------------
 (2) _vfprintf                                             5     1      4    2297
                                             35 BANK0      5     1      4
                          _vfpfcnvrt
 ---------------------------------------------------------------------------------
 (3) _vfpfcnvrt                                           13     9      4    2166
                                             24 BANK0     11     7      4
                              _fputc
                 _read_prec_or_width
                               _utoa
 ---------------------------------------------------------------------------------
 (4) _utoa                                                 9     5      4    1301
                                             15 BANK0      9     5      4
                            ___lwdiv
                            ___lwmod
                                _pad
 ---------------------------------------------------------------------------------
 (5) _pad                                                  8     3      5     747
                                             13 COMMON     1     1      0
                                              8 BANK0      7     2      5
                              _fputc
                              _fputs
 ---------------------------------------------------------------------------------
 (6) _fputs                                                8     5      3     333
                                              0 BANK0      8     5      3
                              _fputc
 ---------------------------------------------------------------------------------
 (7) _fputc                                               13     9      4     232
                                              0 COMMON    13     9      4
                              _putch
 ---------------------------------------------------------------------------------
 (8) _putch                                                1     1      0       0
 ---------------------------------------------------------------------------------
 (5) ___lwmod                                              5     1      4     161
                                              0 COMMON     5     1      4
 ---------------------------------------------------------------------------------
 (5) ___lwdiv                                              7     3      4     164
                                              0 COMMON     7     3      4
 ---------------------------------------------------------------------------------
 (4) _read_prec_or_width                                   6     4      2     276
                                              6 COMMON     6     4      2
                             ___wmul
 ---------------------------------------------------------------------------------
 (5) ___wmul                                               6     2      4      94
                                              0 COMMON     6     2      4
 ---------------------------------------------------------------------------------
 (1) _lcd_string                                           1     0      1      76
                                              3 COMMON     1     0      1
                          _lcd_write
 ---------------------------------------------------------------------------------
 (2) _lcd_write                                            3     3      0      29
                                              0 COMMON     3     3      0
 ---------------------------------------------------------------------------------
 (1) _lcd_set_cursor                                       2     1      1     104
                                              3 COMMON     2     1      1
                            _lcd_cmd
 ---------------------------------------------------------------------------------
 (1) _lcd_init                                             2     2      0      29
                                              3 COMMON     2     2      0
                            _lcd_cmd
 ---------------------------------------------------------------------------------
 (1) _lcd_clear                                            0     0      0      29
                            _lcd_cmd
 ---------------------------------------------------------------------------------
 (2) _lcd_cmd                                              3     3      0      29
                                              0 COMMON     3     3      0
 ---------------------------------------------------------------------------------
 (1) _adc_read_an0                                         3     1      2       0
                                              0 COMMON     3     1      2
 ---------------------------------------------------------------------------------
 (1) _adc_init                                             1     1      0       0
                                              0 COMMON     1     1      0
 ---------------------------------------------------------------------------------
 (1) ___lmul                                              13     5      8      94
                                              0 COMMON    13     5      8
 ---------------------------------------------------------------------------------
 (1) ___lldiv                                             14     6      8     164
                                             13 COMMON     1     1      0
                                              0 BANK0     13     5      8
                             ___lmul (ARG)
 ---------------------------------------------------------------------------------
 Estimated maximum stack depth 8
 ---------------------------------------------------------------------------------

 Call Graph Graphs:

 _main (ROOT)
   ___lldiv
     ___lmul (ARG)
   ___lmul
   _adc_init
   _adc_read_an0
   _lcd_clear
     _lcd_cmd
   _lcd_init
     _lcd_cmd
   _lcd_set_cursor
     _lcd_cmd
   _lcd_string
     _lcd_write
   _sprintf
     _vfprintf
       _vfpfcnvrt
         _fputc
           _putch
         _read_prec_or_width
           ___wmul
         _utoa
           ___lwdiv
           ___lwmod
           _pad
             _fputc
             _fputs
               _fputc

Address spaces:
Name               Size   Autos  Total    Usage
BITCOMMON           14      0       0      0.0%
BITBANK0            80      0       0      0.0%
BITBANK1            80      0       0      0.0%
BITBANK3            96      0       0      0.0%
BITBANK2            96      0       0      0.0%
COMMON              14     14      14    100.0%
BANK0               80     80      80    100.0%
BANK1               80      0      37     46.2%
BANK3               96      0       0      0.0%
BANK2               96      0       0      0.0%
STACK                0      0       0      0.0%
DATA                 0      0     131      0.0%


Microchip Technology PIC Macro Assembler V3.10 build 20250813170317 
Symbol Table                                                                                   Tue Nov 25 21:42:17 2025

                         pc 0002                          l31 02BA                          l40 02E0  
                        l34 02C2                          l43 02F4                          l60 0308  
                        l37 02CC                          l46 03E4                          l54 031E  
                        l49 02A3                          fsr 0004         ___wmul@multiplicand 0072  
                       l154 0371                         l156 0389                         l190 05B4  
                       l168 04A4                         l434 045E                         l444 041C  
                       l640 054E                         l617 0364                         l635 0513  
                       l638 053B                         l656 04F7                         l648 0625  
                       l673 0341                         l666 07F2                         l685 0757  
                       l693 03B4                         l696 029C                         _RB6 0036  
                       _RB7 0037                         u520 06C4                         u521 06C3  
                       u610 0385                         u530 06CA                         u611 0384  
                       u531 06C9                         u620 0425                         u540 06E9  
                       u605 0379                         u621 0424                         u541 06E8  
                       u710 03FB                         u550 071B                         u711 03FA  
                       u551 071A                         u640 0435                         u720 0405  
                       u560 073C                         u800 0610                         u641 0434  
                       u721 0404                         u705 03EF                         u801 060F  
                       u570 03B4                         u810 0615                         u635 0429  
                       u555 0717                         u571 03B3                         u811 0614  
                       u900 0308                         u580 036B                         u820 04B6  
                       u660 0446                         u740 0418                         u901 0307  
                       u581 036A                         u821 04B5                         u661 0445  
                       u741 0417                         u725 0401                         u910 046B  
                       u830 04F3                         u750 04FE                         u911 046A  
                       u831 04F2                         u655 0436                         u735 040C  
                       u751 04FD                         u680 045A                         u760 0511  
                       u840 0769                         u921 0474                         u681 0459  
                       u665 0442                         u761 0510                         u841 0768  
                       u922 047B                         u690 03EB                         u770 053B  
                       u850 078C                         u923 0482                         u595 0372  
                       u675 044E                         u691 03EA                         u771 053A  
                       u851 078B                         u780 0541                         u860 07A5  
                       u781 0540                         u861 07A4                         u950 049C  
                       u790 060A                         u870 033F                         u951 049B  
                       u935 0484                         u775 0537                         u791 0609  
                       u871 033E                         u960 0561                         u880 02C6  
                       u961 0560                         u945 048C                         u881 02C5  
                       u890 030F                         u891 030E                         u980 0573  
                       u981 0572                         u975 0566                         u995 0575  
                       _pad 04F8                         fsr0 0004                         indf 0000  
           ?_lcd_set_cursor 0073                        l1100 040B                        l1102 0412  
                      l1030 06D1                        l1110 04FE                        l1104 0418  
                      l1032 06E9                        l1024 06BE                        l1040 038F  
                      l1120 052D                        l1112 050B                        l1200 07D9  
                      l1210 02D3                        l1050 036B                        l1034 071B  
                      l1026 06C4                        l1042 039F                        l1122 0541  
                      l1114 0511                        l1130 05CD                        l1300 048B  
                      l1212 02DD                        l1220 02F1                        l1052 0378  
                      l1060 041D                        l1028 06CA                        l1044 03A7  
                      l1116 0516                        l1108 04F8                        l1132 05D3  
                      l1140 0603                        l1124 05B5                        l1310 0564  
                      l1302 049C                        l1206 02CE                        l1214 02E2  
                      l1054 037F                        l1046 0365                        l1150 04A5  
                      l1070 0431                        l1062 041F                        l1038 038A  
                      l1118 0525                        l1142 060A                        l1134 05E7  
                      l1126 05B9                        l1222 031F                        l1320 059C  
                      l1312 056F                        l1232 02AC                        l1240 02C6  
                      l1208 02D1                        l1216 02E5                        l1056 0385  
                      l1048 0367                        l1160 04E2                        l1152 04A7  
                      l1080 0454                        l1072 0435                        l1064 0425  
                      l1144 0610                        l1136 05EA                        l1128 05C9  
                      l1224 0324                        l1322 059D                        l1314 0573  
                      l1306 054F                        l1234 02B6                        l1250 03BA  
                      l1218 02E7                        l1162 04F3                        l1154 04B6  
                      l1074 0446                        l1066 0428                        l1082 045A  
                      l1090 03EE                        l1146 0615                        l1138 05F0  
                      l1170 076D                        l1226 0331                        l1330 0626  
                      l1324 05A6                        l1316 057C                        l1308 0561  
                      l1236 02BB                        l1260 03DB                        l1252 03C3  
                      l1244 03B5                        l1156 04C8                        l1076 044C  
                      l1068 042F                        l1092 03F5                        l1180 078D  
                      l1172 0773                        l1228 033F                        l1340 0687  
                      l1332 0635                        l1318 058E                        l1326 05AC  
                      l1238 02BF                        l1262 029D                        l1254 03C9  
                      l1246 03B8                        l1270 02F5                        l1158 04DD  
                      l1078 044D                        l1094 03F7                        l1086 03E5  
                      l1182 0792                        l1174 0777                        l1166 0758  
                      l1342 068E                        l1334 0640                        l1256 03CF  
                      l1248 03B9                        l1264 030A                        l1272 02F6  
                      l1096 03FB                        l1088 03EB                        l1184 0799  
                      l1176 0788                        l1168 0769                        l1280 0346  
                      l1344 0696                        l1336 0670                        l1258 03D5  
                      l1266 030F                        l1274 02FE                        l1098 0405  
                      l1194 07C6                        l1186 07A5                        l1178 078C  
                      l1282 034A                        l1346 06A5                        l1338 0678  
                      l1292 045F                        l1268 0317                        l1276 0300  
                      l1188 07B8                        l1196 07D1                        l1284 034C  
                      l1348 06AC                        l1294 0467                        l1286 034E  
                      l1278 0342                        l1296 046B                        l1288 035B  
                      l1298 0482                        ?_pad 0028                        STR_1 0012  
                      STR_2 0009                        u1000 058E                        u1001 058D  
                      u1020 05AC                        u1021 05AB                        u1005 058A  
                      u1015 059E                        u1037 06B4                        u1047 02EC  
                      u1057 03BE                        u1067 03DF                        u1077 02D8  
                      u1087 02BD                        u1097 02B8                        _dbuf 00A5  
                      _main 0626                        _prec 00A2                        pad@i 002D  
                      pad@p 002B                        btemp 007E                        _utoa 05B5  
                      start 0000                       ??_pad 007D                       ?_main 0070  
           __end_of___lldiv 05B5                       ?_utoa 002F             __end_of___lwdiv 045F  
           __end_of___lwmod 041D                vfpfcnvrt@fmt 003A                       _PORTD 0008  
                     _TRISA 0085                       _TRISD 0088         ___lmul@multiplicand 0074  
              _adc_read_an0 02BB             __end_of_lcd_cmd 02E1                       _flags 00A4  
       read_prec_or_width@c 0079         read_prec_or_width@n 007A                       _fputc 06BE  
                     _fputs 038A                       btemp0 007E                       pad@fp 0028  
                     btemp1 007F                       _width 00A0                       _putch 029C  
                     pclath 000A                       utoa@d 0031                       utoa@i 0036  
                     utoa@p 0035                       utoa@w 0033                       status 0003  
                     wtemp0 007E             __end_of_sprintf 0365             __initialization 07F3  
              __end_of_main 06BE                __end_of_utoa 0626                      ??_main 0059  
                    ??_utoa 007E  __end_of_read_prec_or_width 04F8                      _ADCON0 001F  
                    _ADCON1 009F                      ?_fputc 0070                      ?_fputs 0020  
                    _ADRESH 001E                      _ADRESL 009E                      ?_putch 0070  
          __end_of_adc_init 02BB                      _TRISB6 0436                      _TRISB7 0437  
              vfprintf@cfmt 0047            __end_of_lcd_init 03E5                      ___lmul 045F  
                    ___wmul 0365                   ??___lldiv 007D                   ??___lwdiv 0074  
                 ??___lwmod 0074        read_prec_or_width@ap 0077                      pad@buf 002A  
                 ??_lcd_cmd 0070                      main@mv 006C                      fputc@c 0070  
                    fputs@c 0025                      fputs@i 0026                      fputs@s 0020  
                    ltemp0a 0080                      putch@c 0070                      ttemp0a 007F  
          __end_of_vfprintf 0342                      utoa@fp 002F                   ??_sprintf 004C  
                    wtemp0a 007F               lcd_string@str 0073     __end_of__initialization 07FC  
             lcd_write@data 0072              __pcstackCOMMON 0070               __end_of_fputc 0758  
             __end_of_fputs 03B5               __end_of_putch 029D            ??_lcd_set_cursor 0074  
                   ??_fputc 0074                     ??_fputs 0023                     ??_putch 0070  
                __pbssBANK1 00A0                  __pmaintext 0626                     ?___lmul 0070  
                   ?___wmul 0070              ___lmul@product 0079                   ?_adc_init 0070  
                _lcd_string 02F5                   ?_lcd_init 0070                  __stringtab 0003  
         __end_of_lcd_clear 02A4           __end_of_lcd_write 02F5                     ___lldiv 054F  
                   ___lwdiv 041D                     ___lwmod 03E5                   ?_vfprintf 0043  
                ??_adc_init 0070                     __ptext1 0342                     __ptext2 031F  
                   __ptext3 0758                     __ptext4 05B5                     __ptext5 04F8  
                   __ptext6 038A                     __ptext7 06BE                     __ptext8 029C  
                   __ptext9 03E5                     _lcd_cmd 02CD       read_prec_or_width@fmt 0076  
                   _sprintf 0342                     main@raw 006E                     clrloop0 02A5  
                ??_lcd_init 0073        end_of_initialization 07FC                     fputc@fp 0072  
                   fputs@fp 0021          _read_prec_or_width 04A5             ___lldiv@divisor 0020  
           ___lldiv@counter 002C           __end_of_vfpfcnvrt 07F3         ?_read_prec_or_width 0076  
          vfpfcnvrt@convarg 003E                  ??_vfprintf 007E                  lcd_cmd@cmd 0072  
      ??_read_prec_or_width 0078                 ?_lcd_string 0073                  main@buffer 005C  
            __end_of___lmul 04A5                 vfpfcnvrt@ap 003B                 vfpfcnvrt@cp 0042  
               vfpfcnvrt@fp 0038              __end_of___wmul 038A         start_initialization 07F3  
               __end_of_pad 054F                 vfprintf@fmt 0045                    ??___lmul 0078  
                  ??___wmul 0074                   ___latbits 0002               ?_adc_read_an0 0070  
             __pcstackBANK0 0020            ___lwdiv@dividend 0072                    ?___lldiv 0020  
                  ?___lwdiv 0070                    ?___lwmod 0070                   _lcd_clear 029D  
                 __pstrings 0003                    ?_lcd_cmd 0070                   _lcd_write 02E1  
            ??_adc_read_an0 0072            ___lwdiv@quotient 0074                    ?_sprintf 0048  
            ___wmul@product 0074                   clear_ram0 02A4                    _GO_nDONE 00FA  
                ?_lcd_clear 0070                   _vfpfcnvrt 0758                 __stringbase 0008  
                ?_lcd_write 0070           ___wmul@multiplier 0070                ??_lcd_string 0074  
         ___lmul@multiplier 0070                  vfprintf@ap 0046                  vfprintf@fp 0043  
                ?_vfpfcnvrt 0038          __end_of_lcd_string 0309          __end_of__stringtab 0009  
                  _adc_init 02AC                  sprintf@fmt 0049             ___lwdiv@divisor 0070  
           ___lwdiv@counter 0076                    __ptext10 041D                    __ptext11 04A5  
                  __ptext20 02AC                    __ptext12 0365                    __ptext21 045F  
                  __ptext13 02F5                    __ptext22 054F                    __ptext14 02E1  
                  __ptext15 0309                    __ptext16 03B5                    __ptext17 029D  
                  __ptext18 02CD                    __ptext19 02BB                    _lcd_init 03B5  
      __end_of_adc_read_an0 02CD                    _vfprintf 031F                 ??_lcd_clear 0073  
               ??_lcd_write 0070              _lcd_set_cursor 0309           lcd_set_cursor@col 0073  
                 sprintf@ap 004D           lcd_set_cursor@row 0074            ___lwmod@dividend 0072  
          ___lldiv@dividend 0024                   stringcode 0003                 ??_vfpfcnvrt 003C  
                  sprintf@f 004E                    sprintf@s 0048            ___lldiv@quotient 0028  
           ___lwmod@divisor 0070             ___lwmod@counter 0074                    stringdir 0003  
                  stringtab 0003      __end_of_lcd_set_cursor 031F  
